MPASM 5.73              NEWPIC_8B_SIMPLE.ASM   4-26-2018  8:17:38         PAGE  1


LOC  OBJECT CODE     LINE SOURCE TEXT
  VALUE

                      00001  title  "Voltage-Controlled VCADSR"
                      00002 ;============================================================================
                      00003 ;       ELECTRIC DRUID VOLTAGE CONTROLLED ADSR VERSION 8
                      00004 ;============================================================================
                      00005 ; Legal stuff
                      00006 ; Copyright 2018 Tom Wiltshire for Electric Druid. Some rights reserved.
                      00007 ; This code is shared under a Creative Commons
                      00008 ; Attribution-NonCommercial-ShareAlike 4.0 International Licence
                      00009 ; For full details see www.electricdruid.net/legalstuff
                      00010 ; or get in touch at www.electricdruid.net/contact.
                      00011 ;============================================================================
                      00012  
                      00013 ; This program provides a versatile envelope generator on a single chip.
                      00014 ; It is designed as a modern version of the CEM3312 or SSM2056 ICs.
                      00015 ; Analogue output is provided by the 10 bit DAC, via the op-amp buffer.
                      00016 ; Envelope level control is using the DAC's Ref+ input, so no resolution is
                      00017 ; lost at low output amplitude.
                      00018 ;
                      00019 ; Hardware Notes:
                      00020 ;       PIC16F1764 running at 32 MHz using the internal clock
                      00021 ; 1  +5V
                      00022 ; 2  RA5                        : Punch On/Off 0=APDSR, 1=ADSR (fixed 5msec hold stage)
                      00023 ; 3  RA4                        : 0-5V Mode CV
                      00024 ; 4  RA3/~MCLR/Vpp      : Envelope Type (0=Lin/1=Exp)
                      00025 ; 5  RC5                        : Gate Input
                      00026 ; 6  RC4                        : Trigger Input
                      00027 ; 7  RC3                        : 0-5V Time CV
                      00028 ; 8  RC2/OPA1 OUT       : Envelope Output
                      00029 ; 9  RC1/AN5            : 0-5V Release CV
                      00030 ; 10  RC0/AN4           : 0-5V Sustain CV
                      00031 ; 11  RA2/AN2           : 0-5V Decay CV
                      00032 ; 12  RA1/DAC1REF+      : 0-5V Level CV
                      00033 ; 13  RA0/AN0           : 0-5V Attack CV
                      00034 ; 14  Gnd
                      00035 ;
                      00036 ; This version started as ENVGEN7B.ASM, the ultimate version of my 16F684
                      00037 ; envelope code, developed between 29th Aug 2006 and 14th May 2008
                      00038 ;
                      00039 ; 28th Jan 2018: ENVGEN8.ASM
                      00040 ; Combined the features of LOOPENV1B and ENVGEN7B into one chip.
                      00041 ; Reconfigured things to take advantage of the 10-bit DAC and it's Vref+ input
                      00042 ; for level control without loss of resolution.
                      00043 ;
                      00044 ; 4 Feb 2018 - finishing off
                      00045 ; Adding fixed-length Punch stage and selector input. Testing Time CV.
                      00046 ; Tidying up code.
                      00047 ;
                      00048 ; Begin changes by O.Z. Hall
                      00049 ; 26 Apr 2018 - morph this code to work with the Z209 hardware
                      00050 
                      00051 
                      00052         LIST R=DEC
                      00053         INCLUDE <p16f1764.inc>
MPASM 5.73              NEWPIC_8B_SIMPLE.ASM   4-26-2018  8:17:38         PAGE  2
Voltage-Controlled VCADSR

LOC  OBJECT CODE     LINE SOURCE TEXT
  VALUE

                      00001         LIST
                      00002 
                      00003 ;==========================================================================
                      00004 ; Build date : Mar 21 2017
                      00005 ;  MPASM PIC16F1764 processor include
                      00006 ; 
                      00007 ;  (c) Copyright 1999-2017 Microchip Technology, All rights reserved
                      00008 ;==========================================================================
                      00009 
                      03499         LIST
                      00054         Errorlevel -302
                      00055 
                      00056 ; 16F1764/5 Configuration
8007   0984           00057  __CONFIG _CONFIG1, _FOSC_INTOSC & _WDTE_OFF & _PWRTE_ON & _MCLRE_OFF & _CP_OFF & _BOREN_OFF & _CLKOUTEN
                            _OFF & _IESO_OFF & _FCMEN_OFF
8008   1FFF           00058  __CONFIG _CONFIG2, _WRT_OFF & _PLLEN_ON & _STVREN_ON & _BORV_LO & _LPBOR_OFF & _LVP_OFF
                      00059 
                      00060 ; Assembler has a problem with these: PPS1WAY_OFF & ZCD_OFF
                      00061 ; Weird, since they're in the include file
                      00062 
                      00063 ;------------------------------
                      00064 ;       Variables
                      00065 ;------------------------------
                      00066 
                      00067  CBLOCK 0x020
                      00068         ; The working storage for the interpolation subroutine
  00000020            00069         INPUT_X_HI                                      ; Two inputs, X and Y
  00000021            00070         INPUT_X_LO
  00000022            00071         INPUT_Y_HI
  00000023            00072         INPUT_Y_LO
  00000024            00073         CURVE_OUT_HI                            ; The final, interpolated, curve output
  00000025            00074         CURVE_OUT_LO
                      00075         ; Working storage for the 10x10-bit multiply subroutine
  00000026            00076         MULT_IN_HI
  00000027            00077         MULT_IN_LO                                      ; CURVE_OUT is the other input
  00000028            00078         MULT_OUT_HI
  00000029            00079         MULT_OUT_LO
                      00080         ; The current stage 
  0000002A            00081         STAGE   ; 0=Wait, 1=Attack, 2=Punch, 3=Decay, 4=Sustain, 5=Release, 0=Wait
                      00082 
                      00083         ; The current control voltage(CV) values (8 bit)
  0000002B            00084         ATTACK_CV                                       ; These first four aren't actually used any more
  0000002C            00085         DECAY_CV                                        ; Instead we find a PHASE INC value and use that
  0000002D            00086         SUSTAIN_CV
  0000002E            00087         RELEASE_CV
  0000002F            00088         TIME_CV                                         ; TIME is used directly
  00000030            00089         MODE_CV                                         ; Used to set the LFO_MODE and LOOPING flags
                      00090         ; The debounce counters for GATE and TRIGGER
  00000031            00091         DEBOUNCE_HI
  00000032            00092         DEBOUNCE_LO
  00000033            00093         STATES                                          ; The output state from the debounce
  00000034            00094         CHANGES                                         ; The bits that have altered
                      00095         ; The 24 bit phase accumulator
MPASM 5.73              NEWPIC_8B_SIMPLE.ASM   4-26-2018  8:17:38         PAGE  3
Voltage-Controlled VCADSR

LOC  OBJECT CODE     LINE SOURCE TEXT
  VALUE

  00000035            00096         PHASE_HI
  00000036            00097         PHASE_MID
  00000037            00098         PHASE_LO
                      00099         ; The 20 bit frequency increments
                      00100         ; These are stored separately for Attack, Decay, & Release
                      00101         ; Note that these increments have been adjusted to reflect
                      00102         ; changes due to TIME_CV, whereas the raw CVs haven't
  00000038            00103         ATTACK_INC_LO
  00000039            00104         ATTACK_INC_MID
  0000003A            00105         ATTACK_INC_HI
  0000003B            00106         PUNCH_INC_LO                            ; Punch stage is not variable
  0000003C            00107         PUNCH_INC_MID
  0000003D            00108         PUNCH_INC_HI
  0000003E            00109         DECAY_INC_LO
  0000003F            00110         DECAY_INC_MID
  00000040            00111         DECAY_INC_HI
  00000041            00112         RELEASE_INC_LO
  00000042            00113         RELEASE_INC_MID
  00000043            00114         RELEASE_INC_HI  
                      00115  ENDC
                      00116 
                      00117 ; 0x70-0x7F  Common RAM - Special variables available in all banks
                      00118  CBLOCK 0x070
  00000070            00119         TEMP                                            ; Useful working storage
  00000071            00120         FLAGS                                           ; See Defines below
                      00121         ; The current A/D channel and value
  00000072            00122         ADC_CHANNEL
  00000073            00123         ADC_VALUE
                      00124         ; The current output level when an Attack or Release starts
  00000074            00125         START_HI
  00000075            00126         START_LO
                      00127         ; The 10 bit output level
  00000076            00128         OUTPUT_HI
  00000077            00129         OUTPUT_LO
                      00130  ENDC
                      00131 
                      00132 ;-------------------------------------
                      00133 ;       DEFINE STATEMENTS
                      00134 ;-------------------------------------
                      00135 
                      00136 ; Useful bit definitions for clarity    
                      00137 #define ZERO            STATUS,Z        ; Zero Flag
                      00138 #define CARRY           STATUS,C        ; Carry Flag
                      00139 #define BORROW          STATUS,C        ; Borrow is the same as Carry
                      00140 
                      00141 ; Options selection definitions
                      00142 #define USE_ADSR        PORTA, 5        ; Add Punch stage? (0=APSDR, 1=Standard ADSR)
                      00143 #define USE_EXPO        PORTA, 3        ; Linear or exponential envelope?       (1=Expo)
                      00144  
                      00145 ; Flag bit definitions
                      00146 #define LFO_MODE        FLAGS, 0        ; LFO mode (makes env loop endslessly)
                      00147 #define LOOPING         FLAGS, 1        ; Looping (Makes env loop whilst GATE high)
                      00148 
MPASM 5.73              NEWPIC_8B_SIMPLE.ASM   4-26-2018  8:17:38         PAGE  4
Voltage-Controlled VCADSR

LOC  OBJECT CODE     LINE SOURCE TEXT
  VALUE

                      00149 ; Input definitions
                      00150 #define TRIG_CHANGED    CHANGES, 4      ; RC4 = TRIGGER input
                      00151 #define TRIGGER                 STATES, 4
                      00152 #define GATE_CHANGED    CHANGES, 5      ; RC5 = GATE input
                      00153 #define GATE                    STATES, 5
                      00154 ; Note I use the debounced variables, not the input directly
                      00155  
                      00156 ; Output DAC assignments, mostly for readability (Bank 11)
                      00157 #define ENV_OUT_LO              DAC1REFL
                      00158 #define ENV_OUT_HI              DAC1REFH
                      00159  
                      00160 
                      00161 ;----------------------------------------------------------------------
                      00162 ; Begin Executable Code Segment
                      00163 ;----------------------------------------------------------------------
                      00164  org     0x000                                  ; Processor reset vector
0000   0000           00165         nop                                                     ; For ICD use
0001   2???           00166         goto    Main                            ; Go to the main program
                      00167 
                      00168 ;------------------------------------------------------------------------------
                      00169 ; Timer 2 Interrupt Service Routine
                      00170 ; This is the sample rate timebase of 31.25KHz, and all necessary calculation
                      00171 ; for the next sample is carried out here.
                      00172 ;------------------------------------------------------------------------------
                      00173  org     0x004                                  ; Interrupt vector location
                      00174 
0004                  00175 InterruptEnter:
                      00176 ; Sample rate timebase at 31.25KHz
0004   0020           00177         movlb   D'0'                            ; Bank 0
0005   1C91           00178         btfss   PIR1, TMR2IF            ; Check if TMR2 interrupt
0006   2???           00179         goto    InterruptExit
0007   1091           00180         bcf             PIR1, TMR2IF            ; Clear TMR2 interrupt flag
                      00181         
                      00182         ; If we're in LFO mode, we can ignore the GATE and TRIGGER inputs
0008   1871           00183         btfsc   LFO_MODE
0009   2???           00184         goto    GenerateEnvelope
                      00185 
                      00186 ;---------------------------------------------------------
                      00187 ;       Test and debounce the digital inputs
                      00188 ;---------------------------------------------------------
                      00189 ; Do Scott Dattalo's vertical counter debounce (www.dattalo.com)
                      00190 ; This could debounce eight inputs, but I'm using only two:
                      00191 ; RC4 Trigger and RC5 Gate
                      00192         
                      00193         ; First, increment the debounce counters
000A   0832           00194         movfw   DEBOUNCE_LO     
000B   06B1           00195         xorwf   DEBOUNCE_HI, f          ; HI+ = HI XOR LO
000C   09B2           00196         comf    DEBOUNCE_LO, f          ; LO+ = ~LO
                      00197         ; See if any changes occured
000D   080E           00198         movfw   PORTC                           ; Get current data from GATE & TRIG inputs
000E   0633           00199         xorwf   STATES, w                       ; Find the changes
                      00200         ; Reset counters where no change occured
000F   05B2           00201         andwf   DEBOUNCE_LO, f
MPASM 5.73              NEWPIC_8B_SIMPLE.ASM   4-26-2018  8:17:38         PAGE  5
Voltage-Controlled VCADSR

LOC  OBJECT CODE     LINE SOURCE TEXT
  VALUE

0010   05B1           00202         andwf   DEBOUNCE_HI, f
                      00203         ; If there is a pending change and the count has rolled over,
                      00204         ; then the key has been debounced
0011   3AFF           00205         xorlw   D'255'                          ; Invert the changes
0012   0431           00206         iorwf   DEBOUNCE_HI, w          ; If count is 0, both
0013   0432           00207         iorwf   DEBOUNCE_LO, w          ; HI and LO are 0
                      00208         ; Any bit in W that is clear at this point means that the
                      00209         ; input has changed and the count rolled over.
0014   3AFF           00210         xorlw   D'255'
                      00211         ; Now a 1 in W represents a 'switch just changed'
0015   00B4           00212         movwf   CHANGES                         ; Store the changes
                      00213         ; Update the changes to the keyboard state
0016   06B3           00214         xorwf   STATES, f
                      00215         
                      00216 ; Test the GATE and TRIGGER Pins for changes
                      00217 ;--------------------------------------------
                      00218 ; The logic here is straight-forward. If the Trigger goes high, the envelope
                      00219 ; starts an attack. If the Gate goes low, it starts a release.
                      00220         
0017                  00221 TestTrigger:
                      00222         ; Has TRIGGER changed?
0017   1E34           00223         btfss   TRIG_CHANGED
0018   2???           00224         goto    TestGate
                      00225         ; TRIGGER has changed, but has it gone high?
0019   1E33           00226         btfss   TRIGGER
001A   2???           00227         goto    TestGate                        ; No, so skip
                      00228         
001B                  00229 StartEnvelope:
                      00230 ; If TRIGGER has gone high, change to ATTACK stage
                      00231         ; Zero the accumulator
001B   01B5           00232         clrf    PHASE_HI
001C   01B6           00233         clrf    PHASE_MID
001D   01B7           00234         clrf    PHASE_LO
                      00235         ; What's the current output level?
001E   0876           00236         movf    OUTPUT_HI, w
001F   00F4           00237         movwf   START_HI
0020   0877           00238         movf    OUTPUT_LO, w
0021   00F5           00239         movwf   START_LO
                      00240         ; Move to ATTACK stage
0022   3001           00241         movlw   D'1'
0023   00AA           00242         movwf   STAGE
0024   2???           00243         goto    GenerateEnvelope        
                      00244 
0025                  00245 TestGate:
                      00246         ; Has GATE changed?
0025   1EB4           00247         btfss   GATE_CHANGED
0026   2???           00248         goto    GenerateEnvelope
                      00249         ; GATE has changed, but has it gone low?
0027   1AB3           00250         btfsc   GATE
0028   2???           00251         goto    GenerateEnvelope        ; No, so skip
                      00252 
0029                  00253 EndEnvelope:
                      00254 ; If GATE has gone low, change to RELEASE stage
MPASM 5.73              NEWPIC_8B_SIMPLE.ASM   4-26-2018  8:17:38         PAGE  6
Voltage-Controlled VCADSR

LOC  OBJECT CODE     LINE SOURCE TEXT
  VALUE

                      00255         ; Zero the accumulator
0029   01B5           00256         clrf    PHASE_HI
002A   01B6           00257         clrf    PHASE_MID
002B   01B7           00258         clrf    PHASE_LO
                      00259         ; What's the current output level?
002C   0876           00260         movf    OUTPUT_HI, w
002D   00F4           00261         movwf   START_HI
002E   0877           00262         movf    OUTPUT_LO, w
002F   00F5           00263         movwf   START_LO
                      00264         ; Move to RELEASE stage
0030   3005           00265         movlw   D'5'
0031   00AA           00266         movwf   STAGE
                      00267 
                      00268 
0032                  00269 GenerateEnvelope:
                      00270 ; Do we need to increment the phase accumulator?
                      00271 ; If so, what FSR offset should we use?
0032   082A           00272         movf    STAGE, w                        ; Get current stage
0033   000B           00273         brw
0034   2???           00274         goto    Wait                            ; No PHASE_INC required for WAIT
0035   2???           00275         goto    GetAttackOffset
0036   2???           00276         goto    GetPunchOffset  
0037   2???           00277         goto    GetDecayOffset
0038   2???           00278         goto    Sustain                         ; No PHASE_INC required for SUSTAIN
0039   2???           00279         goto    GetReleaseOffset        
                      00280 ;  There are shorter ways to do this, but this way has the advantage that I
                      00281 ; can easily short-circuit the Wait and Sustain stages.
                      00282         
003A                  00283 GetAttackOffset:
003A   3038           00284         movlw   #ATTACK_INC_LO
003B   2???           00285         goto    IncrementPhase
                      00286 
003C                  00287 GetPunchOffset:
003C   303B           00288         movlw   #PUNCH_INC_LO
003D   2???           00289         goto    IncrementPhase
                      00290 
003E                  00291 GetDecayOffset:
003E   303E           00292         movlw   #DECAY_INC_LO
003F   2???           00293         goto    IncrementPhase
                      00294 
0040                  00295 GetReleaseOffset:
0040   3041           00296         movlw   #RELEASE_INC_LO
                      00297         
                      00298 
                      00299 ; Increment the phase accumulator PHASE (24+20 bit addition)
0041                  00300 IncrementPhase:
0041   0086           00301         movwf   FSR1L                           ; Store offset
0042   0187           00302         clrf    FSR1H                           ; Set up for Indirect Addressing
                      00303         ; Which set of increments are we using?
0043   0016           00304         moviw   FSR1++                          ; Add FREQ_INC to PHASE
0044   07B7           00305         addwf   PHASE_LO, f
0045   0016           00306         moviw   FSR1++
0046   3DB6           00307         addwfc  PHASE_MID, f
MPASM 5.73              NEWPIC_8B_SIMPLE.ASM   4-26-2018  8:17:38         PAGE  7
Voltage-Controlled VCADSR

LOC  OBJECT CODE     LINE SOURCE TEXT
  VALUE

0047   0016           00308         moviw   FSR1++
0048   3DB5           00309         addwfc  PHASE_HI, f
0049   1C03           00310         btfss   CARRY                           ; Has it overflowed?
004A   2???           00311         goto    SelectStage                     ; No, so continue directly
                      00312 
                      00313 ; Accumulator has overflowed, so move to the next stage
004B                  00314 NextStage:
                      00315         ; First zero the accumulator..
004B   01B5           00316         clrf    PHASE_HI
004C   01B6           00317         clrf    PHASE_MID
004D   01B7           00318         clrf    PHASE_LO
                      00319         ; ..then increment the STAGE
004E   0AAA           00320         incf    STAGE, f
                      00321 
004F                  00322 TestPunch:
                      00323 ; Do we use the Punch stage?
004F   1E8C           00324         btfss   USE_ADSR                ; Standard ADSR, so skip Punch
0050   2???           00325         goto    TestLooping
                      00326 
0051                  00327 SkipPunch:
                      00328         ; Are we on the Punch stage?
0051   082A           00329         movf    STAGE, w                ; We're about to examine what STAGE we're on
0052   3A02           00330         xorlw   D'2'
0053   1D03           00331         btfss   ZERO                    ; Is STAGE==2 yet? (PUNCH)
0054   2???           00332         goto    TestLooping
0055   0AAA           00333         incf    STAGE, f                ; Move directly to Decay
0056   2???           00334         goto    SelectStage
                      00335         
0057                  00336 TestLooping:    
                      00337 ; Are we looping? (Could be either Env Looping or LFO mode)
0057   082A           00338         movf    STAGE, w                ; We're about to examine what STAGE we're on
0058   1CF1           00339         btfss   LOOPING
0059   2???           00340         goto    NormalEnvelope
                      00341 
005A                  00342 LoopingEnvelopeOrLFOMode:
                      00343 ; If we're looping, two things are different:
                      00344 ; 1. If STAGE==4, SUSTAIN, we jump straight to STAGE=5, RELEASE 
                      00345 ; 2. If STAGE==6, then we jump back to STAGE=1, ATTACK
005A   3A04           00346         xorlw   D'4'
005B   1D03           00347         btfss   ZERO                    ; Is STAGE==4 yet? (SUSTAIN)
005C   2???           00348         goto    TestLoopingEnd
005D                  00349 SkipSustain:                            ; Yes, so move directly to RELEASE
005D   0AAA           00350         incf    STAGE, f
005E   0876           00351         movf    OUTPUT_HI, w    ; What's the current output level?
005F   00F4           00352         movwf   START_HI
0060   0877           00353         movf    OUTPUT_LO, w
0061   00F5           00354         movwf   START_LO
0062   2???           00355         goto    SelectStage
0063                  00356 TestLoopingEnd:
0063   3A02           00357         xorlw   D'2'                    ; Equivalent to "XORLW 4" then "XORLW 6"
0064   1D03           00358         btfss   ZERO                    ; Is STAGE==6 yet? (Envelope finished release)
0065   2???           00359         goto    SelectStage             ; STAGE !=6, so skip the rest
                      00360         ; Envelope has finished release, and we're either in LFO mode,
MPASM 5.73              NEWPIC_8B_SIMPLE.ASM   4-26-2018  8:17:38         PAGE  8
Voltage-Controlled VCADSR

LOC  OBJECT CODE     LINE SOURCE TEXT
  VALUE

                      00361         ; or Gated Looping
                      00362         ; We need to determine which, and either go back to the Attack, or finish.
0066   1AB3           00363         btfsc   GATE                    ; If the Gate is high, it doesn't matter which..
0067   2???           00364         goto    LoopToAttack    ; ..since we go back to the Attack in either case
                      00365         ; GATE is Low, so which should it be?
0068   1871           00366         btfsc   LFO_MODE                ; Are we in LFO mode?
0069   2???           00367         goto    LoopToAttack    ; If it's LFO Mode we go back to Attack
                      00368         ; Gated Looping mode, Release has finished
006A   01AA           00369         clrf    STAGE                   ; Reset STAGE to zero, WAIT
006B   2???           00370         goto    SelectStage
                      00371 
006C                  00372 LoopToAttack:                           ; Yes, so reset it to ATTACK
006C   3001           00373         movlw   D'1'
006D   00AA           00374         movwf   STAGE
006E   0876           00375         movf    OUTPUT_HI, w    ; What's the current output level?
006F   00F4           00376         movwf   START_HI
0070   0877           00377         movf    OUTPUT_LO, w
0071   00F5           00378         movwf   START_LO
0072   2???           00379         goto    SelectStage
                      00380 
0073                  00381 NormalEnvelope:
0073   3A06           00382         xorlw   D'6'
0074   1903           00383         btfsc   ZERO                    ; Is STAGE==6 yet?
0075   01AA           00384         clrf    STAGE                   ; Yes, so reset it to zero, WAIT
                      00385 
                      00386 
                      00387 ; We need to produce different output values depending on which stage we're at
0076                  00388 SelectStage:
0076   082A           00389         movf    STAGE, w                        ; Get current stage
0077   000B           00390         brw
0078                  00391 SelectStageBranch:
0078   2???           00392         goto    Wait                            ; (Only gets called from here after 'NextStage')
0079   2???           00393         goto    Attack
007A   2???           00394         goto    Punch   
007B   2???           00395         goto    Decay
007C   2???           00396         goto    Sustain                         ; (Only gets called from here after 'NextStage')
007D   2???           00397         goto    Release
                      00398 
007E                  00399 Wait:
                      00400         ; Do nothing. GATE is low, and release stage has finished
007E   01F6           00401         clrf    OUTPUT_HI                       ; Ensure we output zero when waiting
007F   01F7           00402         clrf    OUTPUT_LO
0080   2???           00403         goto    DACOutput
                      00404 
0081                  00405 Attack:
                      00406         ; Attack needs scaling by 1-START level,
                      00407         ; then needs START level adding to it
0081   0974           00408         comf    START_HI, w
0082   00A6           00409         movwf   MULT_IN_HI
0083   0975           00410         comf    START_LO, w
0084   00A7           00411         movwf   MULT_IN_LO
                      00412         ; Set up CURVE_OUT with the linear value (in case)
0085   0835           00413         movf    PHASE_HI, w
MPASM 5.73              NEWPIC_8B_SIMPLE.ASM   4-26-2018  8:17:38         PAGE  9
Voltage-Controlled VCADSR

LOC  OBJECT CODE     LINE SOURCE TEXT
  VALUE

0086   00A4           00414         movwf   CURVE_OUT_HI
0087   0836           00415         movf    PHASE_MID, w
0088   00A5           00416         movwf   CURVE_OUT_LO
                      00417         ; Do we use the linear value directly, or do an expo lookup?
0089   1D8C           00418         btfss   USE_EXPO
008A   2???           00419         goto    AttackScaling
                      00420 
008B                  00421 ExponentialAttack:
                      00422         ; Set up the exponential lookup index
008B   0187           00423         clrf    FSR1H
008C   3535           00424         lslf    PHASE_HI, w                     ; Shift it up for 16-bit table
008D   0086           00425         movwf   FSR1L
008E   0D87           00426         rlf             FSR1H, f
                      00427         ; Add the table base address
008F   30??           00428         movlw   LOW AttackCurve         ; Get the table base address
0090   0786           00429         addwf   FSR1L, f                        ; Add it to the index
0091   30??           00430         movlw   HIGH AttackCurve
0092   3D87           00431         addwfc  FSR1H, f
                      00432         ; Get the required value for an exponential Attack curve
0093   2???           00433         call    LookupAndInterp         ; Returns values in CURVE_OUT
                      00434 
0094                  00435 AttackScaling:
0094   2???           00436         call    Multiply10x10           ; Do the scaling
                      00437         ; Add START level
0095   0875           00438         movf    START_LO, w
0096   0729           00439         addwf   MULT_OUT_LO, w
0097   00F7           00440         movwf   OUTPUT_LO
0098   0874           00441         movf    START_HI, w
0099   3D28           00442         addwfc  MULT_OUT_HI, w
009A   00F6           00443         movwf   OUTPUT_HI
009B   2???           00444         goto    DACOutput
                      00445 
                      00446         
009C                  00447 Punch:
                      00448         ; This is a short fixed Hold stage
009C   30FF           00449         movlw   D'255'
009D   00F6           00450         movwf   OUTPUT_HI                       ; Ensure we output high
009E   00F7           00451         movwf   OUTPUT_LO
009F   2???           00452         goto    DACOutput
                      00453 
                      00454 
00A0                  00455 Decay:
                      00456         ; Decay needs scaling by 1-SUSTAIN and then inverting
00A0   092D           00457         comf    SUSTAIN_CV, w
00A1   00A6           00458         movwf   MULT_IN_HI
00A2   00A7           00459         movwf   MULT_IN_LO
                      00460         ; Set up CURVE_OUT with the linear value (in case)
00A3   0835           00461         movf    PHASE_HI, w
00A4   00A4           00462         movwf   CURVE_OUT_HI
00A5   0836           00463         movf    PHASE_MID, w
00A6   00A5           00464         movwf   CURVE_OUT_LO
                      00465         ; Do we use the linear value directly, or do an expo lookup?
00A7   1D8C           00466         btfss   USE_EXPO
MPASM 5.73              NEWPIC_8B_SIMPLE.ASM   4-26-2018  8:17:38         PAGE 10
Voltage-Controlled VCADSR

LOC  OBJECT CODE     LINE SOURCE TEXT
  VALUE

00A8   2???           00467         goto    DecayScaling
                      00468 
00A9                  00469 ExponentialDecay:
                      00470         ; Set up the exponential lookup index
00A9   0187           00471         clrf    FSR1H
00AA   3535           00472         lslf    PHASE_HI, w                     ; Shift it up for 16-bit table
00AB   0086           00473         movwf   FSR1L
00AC   0D87           00474         rlf             FSR1H, f
                      00475         ; Add the table base address
00AD   30??           00476         movlw   LOW DecayCurve          ; Get the table base address
00AE   0786           00477         addwf   FSR1L, f                        ; Add it to the index
00AF   30??           00478         movlw   HIGH DecayCurve
00B0   3D87           00479         addwfc  FSR1H, f
                      00480         ; Get the required value for an exponential Decay curve
00B1   2???           00481         call    LookupAndInterp         ; Returns values in CURVE_OUT
                      00482 
00B2                  00483 DecayScaling:
00B2   2???           00484         call    Multiply10x10           ; Do the scaling
                      00485         ; Invert the result
00B3   0928           00486         comf    MULT_OUT_HI, w
00B4   00F6           00487         movwf   OUTPUT_HI
00B5   0929           00488         comf    MULT_OUT_LO, w
00B6   00F7           00489         movwf   OUTPUT_LO
00B7   2???           00490         goto    DACOutput
                      00491 
                      00492 
00B8                  00493 Sustain:
                      00494         ; Do nothing. Gate is high, and decay stage has finished
00B8   082D           00495         movf    SUSTAIN_CV, w           ; Ensure that we output the sustain level
00B9   00F6           00496         movwf   OUTPUT_HI
00BA   00F7           00497         movwf   OUTPUT_LO
00BB   2???           00498         goto    DACOutput
                      00499 
                      00500 
00BC                  00501 Release:
                      00502         ; Release needs scaling by START level, then
                      00503         ; 1-START level adding, then inverting
00BC   0874           00504         movf    START_HI, w
00BD   00A6           00505         movwf   MULT_IN_HI
00BE   0875           00506         movf    START_LO, w
00BF   00A7           00507         movwf   MULT_IN_LO
                      00508         ; Set up CURVE_OUT with the linear value (in case)
00C0   0835           00509         movf    PHASE_HI, w
00C1   00A4           00510         movwf   CURVE_OUT_HI
00C2   0836           00511         movf    PHASE_MID, w
00C3   00A5           00512         movwf   CURVE_OUT_LO
                      00513         ; Do we use the linear value directly, or do an expo lookup?
00C4   1D8C           00514         btfss   USE_EXPO
00C5   2???           00515         goto    ReleaseScaling
                      00516 
00C6                  00517 ExponentialRelease:
                      00518         ; Set up the exponential lookup index
00C6   0187           00519         clrf    FSR1H
MPASM 5.73              NEWPIC_8B_SIMPLE.ASM   4-26-2018  8:17:38         PAGE 11
Voltage-Controlled VCADSR

LOC  OBJECT CODE     LINE SOURCE TEXT
  VALUE

00C7   3535           00520         lslf    PHASE_HI, w                     ; Shift it up for 16-bit table
00C8   0086           00521         movwf   FSR1L
00C9   0D87           00522         rlf             FSR1H, f
                      00523         ; Add the table base address
00CA   30??           00524         movlw   LOW DecayCurve          ; Get the table base address
00CB   0786           00525         addwf   FSR1L, f                        ; Add it to the index
00CC   30??           00526         movlw   HIGH DecayCurve
00CD   3D87           00527         addwfc  FSR1H, f
                      00528         ; Get the required value for an exponential Decay curve
00CE   2???           00529         call    LookupAndInterp
                      00530 
00CF                  00531 ReleaseScaling:
00CF   2???           00532         call    Multiply10x10           ; Do the scaling
                      00533         ; Add 1-START level
00D0   0975           00534         comf    START_LO, w
00D1   0729           00535         addwf   MULT_OUT_LO, w
00D2   00F7           00536         movwf   OUTPUT_LO
00D3   0974           00537         comf    START_HI, w
00D4   3D28           00538         addwfc  MULT_OUT_HI, w
00D5   00F6           00539         movwf   OUTPUT_HI
                      00540         ; Invert the result
00D6   09F6           00541         comf    OUTPUT_HI,f
00D7   09F7           00542         comf    OUTPUT_LO,f
                      00543 
                      00544 ; Set DAC Output
                      00545 ;---------------------------------------
00D8                  00546 DACOutput:
                      00547         ; Load 10-bit DAC
00D8   002B           00548         movlb   D'11'                           ; All DACs are in Bank 11
00D9   0877           00549         movf    OUTPUT_LO, w            ; Move output data to DAC1
00DA   0092           00550         movwf   DAC1REFL
00DB   0876           00551         movf    OUTPUT_HI, w
00DC   0093           00552         movwf   DAC1REFH        
00DD   3001           00553         movlw   B'00000001'
00DE   0090           00554         movwf   DACLD                           ; Load DAC1 alone
                      00555         
                      00556 ;----------------------------------------
00DF                  00557 InterruptExit:
00DF   0009           00558         retfie
                      00559 
                      00560 ;------------------------------------------------------
                      00561 ;       10 bit x 10 bit Multiply Subroutine
                      00562 ; This is used by the Attack, Decay and Release stages to
                      00563 ; scale their output.
                      00564 ; The value in CURVE_OUT is multipled by MULT_IN.
                      00565 ; Both are 10-bit, left-aligned.
                      00566 ; 16 bit Output is in MULT_OUT_HI/LO
                      00567 ;------------------------------------------------------
00E0                  00568 Multiply10x10:
                      00569         ; Clear the output
00E0   01A8           00570         clrf    MULT_OUT_HI
00E1   01A9           00571         clrf    MULT_OUT_LO
                      00572 
MPASM 5.73              NEWPIC_8B_SIMPLE.ASM   4-26-2018  8:17:38         PAGE 12
Voltage-Controlled VCADSR

LOC  OBJECT CODE     LINE SOURCE TEXT
  VALUE

00E2                  00573 MultBit0:
00E2   1003           00574         clrc                                            ; Only important if we skip
00E3   1F27           00575         btfss   MULT_IN_LO, 6           ; Do the test
00E4   2???           00576         goto    MultBit1                        ; Skip if bit not set
                      00577 
00E5   0825           00578         movf    CURVE_OUT_LO, w         ; Add to output if bit set
00E6   07A9           00579         addwf   MULT_OUT_LO, f
00E7   0824           00580         movf    CURVE_OUT_HI, w
00E8   3DA8           00581         addwfc  MULT_OUT_HI, f
                      00582 
00E9                  00583 MultBit1:
00E9   0CA8           00584         rrf             MULT_OUT_HI, f          ; Shift down
00EA   0CA9           00585         rrf             MULT_OUT_LO, f
                      00586 
00EB   1003           00587         clrc                                            ; Only important if we skip
00EC   1FA7           00588         btfss   MULT_IN_LO, 7           ; Do test
00ED   2???           00589         goto    MultBit2                        ; Skip if bit not set
                      00590 
00EE   0825           00591         movf    CURVE_OUT_LO, w         ; Add to output if bit set
00EF   07A9           00592         addwf   MULT_OUT_LO, f
00F0   0824           00593         movf    CURVE_OUT_HI, w
00F1   3DA8           00594         addwfc  MULT_OUT_HI, f
                      00595 
00F2                  00596 MultBit2:
00F2   0CA8           00597         rrf             MULT_OUT_HI, f          ; etc..
00F3   0CA9           00598         rrf             MULT_OUT_LO, f
                      00599 
00F4   1003           00600         clrc
00F5   1C26           00601         btfss   MULT_IN_HI, 0
00F6   2???           00602         goto    MultBit3
                      00603 
00F7   0825           00604         movf    CURVE_OUT_LO, w
00F8   07A9           00605         addwf   MULT_OUT_LO, f
00F9   0824           00606         movf    CURVE_OUT_HI, w
00FA   3DA8           00607         addwfc  MULT_OUT_HI, f
                      00608 
00FB                  00609 MultBit3:
00FB   0CA8           00610         rrf             MULT_OUT_HI, f
00FC   0CA9           00611         rrf             MULT_OUT_LO, f
                      00612 
00FD   1003           00613         clrc
00FE   1CA6           00614         btfss   MULT_IN_HI, 1
00FF   2???           00615         goto    MultBit4
                      00616 
0100   0825           00617         movf    CURVE_OUT_LO, w
0101   07A9           00618         addwf   MULT_OUT_LO, f
0102   0824           00619         movf    CURVE_OUT_HI, w
0103   3DA8           00620         addwfc  MULT_OUT_HI, f
                      00621 
0104                  00622 MultBit4:
0104   0CA8           00623         rrf             MULT_OUT_HI, f
0105   0CA9           00624         rrf             MULT_OUT_LO, f
                      00625 
MPASM 5.73              NEWPIC_8B_SIMPLE.ASM   4-26-2018  8:17:38         PAGE 13
Voltage-Controlled VCADSR

LOC  OBJECT CODE     LINE SOURCE TEXT
  VALUE

0106   1003           00626         clrc
0107   1D26           00627         btfss   MULT_IN_HI, 2
0108   2???           00628         goto    MultBit5
                      00629 
0109   0825           00630         movf    CURVE_OUT_LO, w
010A   07A9           00631         addwf   MULT_OUT_LO, f
010B   0824           00632         movf    CURVE_OUT_HI, w
010C   3DA8           00633         addwfc  MULT_OUT_HI, f
                      00634 
010D                  00635 MultBit5:
010D   0CA8           00636         rrf             MULT_OUT_HI, f
010E   0CA9           00637         rrf             MULT_OUT_LO, f
                      00638 
010F   1003           00639         clrc
0110   1DA6           00640         btfss   MULT_IN_HI, 3
0111   2???           00641         goto    MultBit6
                      00642 
0112   0825           00643         movf    CURVE_OUT_LO, w
0113   07A9           00644         addwf   MULT_OUT_LO, f
0114   0824           00645         movf    CURVE_OUT_HI, w
0115   3DA8           00646         addwfc  MULT_OUT_HI, f
                      00647 
0116                  00648 MultBit6:
0116   0CA8           00649         rrf             MULT_OUT_HI, f
0117   0CA9           00650         rrf             MULT_OUT_LO, f
                      00651 
0118   1003           00652         clrc
0119   1E26           00653         btfss   MULT_IN_HI, 4
011A   2???           00654         goto    MultBit7
                      00655 
011B   0825           00656         movf    CURVE_OUT_LO, w
011C   07A9           00657         addwf   MULT_OUT_LO, f
011D   0824           00658         movf    CURVE_OUT_HI, w
011E   3DA8           00659         addwfc  MULT_OUT_HI, f
                      00660 
011F                  00661 MultBit7:
011F   0CA8           00662         rrf             MULT_OUT_HI, f
0120   0CA9           00663         rrf             MULT_OUT_LO, f
                      00664 
0121   1003           00665         clrc
0122   1EA6           00666         btfss   MULT_IN_HI, 5
0123   2???           00667         goto    MultBit8
                      00668 
0124   0825           00669         movf    CURVE_OUT_LO, w
0125   07A9           00670         addwf   MULT_OUT_LO, f
0126   0824           00671         movf    CURVE_OUT_HI, w
0127   3DA8           00672         addwfc  MULT_OUT_HI, f
                      00673 
0128                  00674 MultBit8:
0128   0CA8           00675         rrf             MULT_OUT_HI, f
0129   0CA9           00676         rrf             MULT_OUT_LO, f
                      00677 
012A   1003           00678         clrc
MPASM 5.73              NEWPIC_8B_SIMPLE.ASM   4-26-2018  8:17:38         PAGE 14
Voltage-Controlled VCADSR

LOC  OBJECT CODE     LINE SOURCE TEXT
  VALUE

012B   1F26           00679         btfss   MULT_IN_HI, 6
012C   2???           00680         goto    MultBit9
                      00681 
012D   0825           00682         movf    CURVE_OUT_LO, w
012E   07A9           00683         addwf   MULT_OUT_LO, f
012F   0824           00684         movf    CURVE_OUT_HI, w
0130   3DA8           00685         addwfc  MULT_OUT_HI, f
                      00686 
0131                  00687 MultBit9:
0131   0CA8           00688         rrf             MULT_OUT_HI, f
0132   0CA9           00689         rrf             MULT_OUT_LO, f
                      00690 
0133   1003           00691         clrc
0134   1FA6           00692         btfss   MULT_IN_HI, 7
0135   2???           00693         goto    MultEnd
                      00694 
0136   0825           00695         movf    CURVE_OUT_LO, w
0137   07A9           00696         addwf   MULT_OUT_LO, f
0138   0824           00697         movf    CURVE_OUT_HI, w
0139   3DA8           00698         addwfc  MULT_OUT_HI, f
                      00699 
013A                  00700 MultEnd:
                      00701         ; Do the last down shift and we're done!
013A   0CA8           00702         rrf             MULT_OUT_HI, f
013B   0CA9           00703         rrf             MULT_OUT_LO, f
                      00704 ; Note:
                      00705 ; The original 8x8 routine was 66 instructions.
                      00706 ; This is 82, so it's only 16 instructions worse. Actual runtime
                      00707 ; is variable depending on how many bits of MULT_IN are set, but average
                      00708 ; time will be 62-odd instructions. Not half bad!
013C   0008           00709         return
                      00710 
                      00711 
                      00712 ;------------------------------------------------------
                      00713 ;       Linear Interpolation Subroutine
                      00714 ; This is used by the Attack, Decay, and Release stages.
                      00715 ; The routine expects to be given an FSR pointer from where it can read
                      00716 ; two 16-bit values to interpolate between: INPUT_X and INPUT_Y
                      00717 ; It also assumes that PHASE_MID is to be used as interpolation index.
                      00718 ; The interpolation result goes into CURVE_OUT.
                      00719 ; Since I only want a 10-bit result, we stop the calculation quite early,
                      00720 ; only doing a 3-bit interp (one extra bit for good measure).
                      00721 ;------------------------------------------------------
013D                  00722 LookupAndInterp:
                      00723         ; Get the two samples
013D   0016           00724         moviw   FSR1++
013E   00A1           00725         movwf   INPUT_X_LO                      ; Fetch Input X
013F   00A5           00726         movwf   CURVE_OUT_LO            ; We start with Input X
0140   0016           00727         moviw   FSR1++
0141   00A0           00728         movwf   INPUT_X_HI
0142   00A4           00729         movwf   CURVE_OUT_HI            ; and here too
0143   0016           00730         moviw   FSR1++
0144   00A3           00731         movwf   INPUT_Y_LO                      ; Fetch Input Y
MPASM 5.73              NEWPIC_8B_SIMPLE.ASM   4-26-2018  8:17:38         PAGE 15
Voltage-Controlled VCADSR

LOC  OBJECT CODE     LINE SOURCE TEXT
  VALUE

0145   0016           00732         moviw   FSR1++
0146   00A2           00733         movwf   INPUT_Y_HI
                      00734 
                      00735 ; Do the Interpolation between the two samples
                      00736 
                      00737         ; Interp bit 0
0147   0821           00738         movf    INPUT_X_LO, w           ; Assume Input X
0148   1AB6           00739         btfsc   PHASE_MID, 5
0149   0823           00740         movf    INPUT_Y_LO, w           ; Use Input Y if set
014A   07A5           00741         addwf   CURVE_OUT_LO, f         ; Add selected byte to output
014B   0820           00742         movf    INPUT_X_HI, w           ; Do same again for high byte
014C   1AB6           00743         btfsc   PHASE_MID, 5
014D   0822           00744         movf    INPUT_Y_HI, w
014E   3DA4           00745         addwfc  CURVE_OUT_HI, f
014F   0CA4           00746         rrf             CURVE_OUT_HI, f         ; Shift down
0150   0CA5           00747         rrf             CURVE_OUT_LO, f
                      00748         ; Interp bit 1
0151   0821           00749         movf    INPUT_X_LO, w           ; Assume Input X
0152   1B36           00750         btfsc   PHASE_MID, 6
0153   0823           00751         movf    INPUT_Y_LO, w           ; Use Input Y if set
0154   07A5           00752         addwf   CURVE_OUT_LO, f         ; Add selected byte to output
0155   0820           00753         movf    INPUT_X_HI, w           ; Do same again for high byte
0156   1B36           00754         btfsc   PHASE_MID, 6
0157   0822           00755         movf    INPUT_Y_HI, w
0158   3DA4           00756         addwfc  CURVE_OUT_HI, f
0159   0CA4           00757         rrf             CURVE_OUT_HI, f         ; Shift down
015A   0CA5           00758         rrf             CURVE_OUT_LO, f
                      00759         ; Interp bit 2
015B   0821           00760         movf    INPUT_X_LO, w           ; Assume Input X
015C   1BB6           00761         btfsc   PHASE_MID, 7
015D   0823           00762         movf    INPUT_Y_LO, w           ; Use Input Y if set
015E   07A5           00763         addwf   CURVE_OUT_LO, f         ; Add selected byte to output
015F   0820           00764         movf    INPUT_X_HI, w           ; Do same again for high byte
0160   1BB6           00765         btfsc   PHASE_MID, 7
0161   0822           00766         movf    INPUT_Y_HI, w
0162   3DA4           00767         addwfc  CURVE_OUT_HI, f
0163   0CA4           00768         rrf             CURVE_OUT_HI, f         ; Shift down
0164   0CA5           00769         rrf             CURVE_OUT_LO, f
0165   0008           00770         return
                      00771 
                      00772 
                      00773 ;----------------------------------------
                      00774 ;       Analogue to Digital conversion subroutine
                      00775 ; This is used by the main code loop
                      00776 ;----------------------------------------
0166                  00777 DoADConversion:
0166   0021           00778         movlb   D'1'                            ; Bank 1
0167   009D           00779         movwf   ADCON0
                      00780 
                      00781         ; Short delay whilst the channel settles
0168   3032           00782         movlw   D'50'
0169   00F0           00783         movwf   TEMP
016A   0BF0           00784         decfsz  TEMP, f
MPASM 5.73              NEWPIC_8B_SIMPLE.ASM   4-26-2018  8:17:38         PAGE 16
Voltage-Controlled VCADSR

LOC  OBJECT CODE     LINE SOURCE TEXT
  VALUE

016B   3???           00785         bra             $-1
                      00786 
                      00787         ; Start the conversion
016C   149D           00788         bsf             ADCON0, GO_NOT_DONE
                      00789         ; Wait for it to finish
016D   189D           00790         btfsc   ADCON0, GO_NOT_DONE     ; Is it done?
016E   3???           00791         bra             $-1
                      00792 
                      00793         ;  Read the ADC Value and store it
016F   081C           00794         movf    ADRESH, w
0170   00F3           00795         movwf   ADC_VALUE
0171   0020           00796         movlb   D'0'                            ; Bank 0
0172   0008           00797         return
                      00798 
                      00799 ;----------------------------------------
                      00800 ;       The main program
                      00801 ; This reads the A/D channels and provides
                      00802 ; values for the DDS
                      00803 ;----------------------------------------
0173                  00804 Main:
0173   0021           00805         movlb   D'1'                            ; Bank 1
                      00806 
                      00807         ; Set up the clock for 32MHz internal
0174   30F0           00808         movlw   B'11110000'                     ; 8MHz internal, x4 PLL
0175   0099           00809         movwf   OSCCON
                      00810 
                      00811         ; Set up the IO Ports
0176   303F           00812         movlw   b'111111'                       ; All inputs RA0:RA5
0177   008C           00813         movwf   TRISA
0178   303B           00814         movlw   b'111011'                       ; RC2 Output, all others inputs
0179   008E           00815         movwf   TRISC
                      00816 
                      00817         ; Set up the interrupts
017A   178B           00818         bsf             INTCON, GIE                     ; Enable interrupts
017B   170B           00819         bsf             INTCON, PEIE            ; Enable peripheral interrupts
                      00820 ;       bsf             INTCON, IOCIE           ; Enable interrupt-on-change
017C   1491           00821         bsf             PIE1, TMR2IE            ; Enable the output sample rate interrupt
                      00822         
                      00823 ; Set up Timer2 as sample rate timebase
017D   0020           00824         movlb   D'0'                            ; Bank 0                
017E   3001           00825         movlw   B'00000001'                     
017F   009E           00826         movwf   T2CLKCON                        ; Fosc/4 = 8MHz clock for timer
0180   3030           00827         movlw   B'00110000'                     ; Prescale /8 = 1MHz, Postscale /1, Tmr Off
0181   009C           00828         movwf   T2CON                                   
0182   301F           00829         movlw   0x1F                            ; Set up Timer2 period register (/32)
0183   009B           00830         movwf   T2PR                            ; Interrupts at 1MHz/32 = 31.25KHz
                      00831 
                      00832 ; Set up Analog-to-digital convertor and ADC inputs
0184   0023           00833         movlb   D'3'                            ; Bank 3
0185   3017           00834         movlw   B'00010111'                     ; 4 Analog inputs on RA0-RA2, RA4
0186   008C           00835         movwf   ANSELA
0187   300B           00836         movlw   B'00001011'                     ; 3 Analog inputs on RC0, RC1, RC3
0188   008E           00837         movwf   ANSELC
MPASM 5.73              NEWPIC_8B_SIMPLE.ASM   4-26-2018  8:17:38         PAGE 17
Voltage-Controlled VCADSR

LOC  OBJECT CODE     LINE SOURCE TEXT
  VALUE

                      00838 
0189   0021           00839         movlb   D'1'                            ; Bank 1
018A   3001           00840         movlw   B'00000001'                     ; AN0, ADC on
018B   009D           00841         movwf   ADCON0  
018C   3060           00842         movlw   B'01100000'                     ; Left-justified, Fosc/64, Vss to Vdd range.
018D   009E           00843         movwf   ADCON1
                      00844         
                      00845 ; Set up DAC1 (10-bit) for Envelope Output
018E   002B           00846         movlb   D'11'                           ; All DACs are in Bank 11
018F   30C4           00847         movlw   B'11000100'                     ; Enabled, L-justified, No output, Vref+, Vss
                      00848 ;       movlw   B'11000000'                     ; Enabled, L-justified, No output, Vdd, Vss
0190   0091           00849         movwf   DAC1CON0                        ; (Note that we use Vref+ as Level CV)
0191   0193           00850         clrf    DAC1REFH                        ; Zero the value
0192   0192           00851         clrf    DAC1REFL
                      00852         
                      00853 ; Set up op-amp to buffer DAC output
0193   002A           00854         movlb   D'10'                           ; Bank 10
0194   3000           00855         movlw   B'00000000'                     ; -in = default (we set unity gain in a mo)
0195   008F           00856         movwf   OPA1NCHS
0196   3002           00857         movlw   B'00000010'                     ; +in = DAC1
0197   0090           00858         movwf   OPA1PCHS
0198   3090           00859         movlw   B'10010000'                     ; Enabled, Unity Gain, no override
0199   0091           00860         movwf   OPA1CON
019A   3000           00861         movlw   B'00000000'                     ; Override selection (default)
019B   0092           00862         movwf   OPA1ORS
                      00863 
                      00864 ; Set up weak pull-ups on USE_ADSR and USE_EXPO inputs
019C   0021           00865         movlb   D'1'                            ; Bank 1
019D   307F           00866         movlw   B'01111111'
019E   0095           00867         movwf   OPTION_REG                      ; Weak pull-ups enabled
019F   0024           00868         movlb   D'4'                            ; Bank 4
01A0   3000           00869         movlw   B'000000'                       ; No Pull-ups on Port C
01A1   008E           00870         movwf   WPUC
01A2   3028           00871         movlw   B'101000'                       ; Pull-ups on RA3 and RA5
01A3   008C           00872         movwf   WPUA
                      00873 
                      00874         
                      00875 ; Set up initial values of the variables
                      00876 ;-----------------------------------------
01A4   0020           00877         movlb   D'0'                                    ; Bank 0
                      00878         
                      00879         ; Set up both indirection pointers for Bank0
01A5   0185           00880         clrf    FSR0H
01A6   0187           00881         clrf    FSR1H
                      00882 
                      00883         ; Set up initial values of the variables
01A7   01AB           00884         clrf    ATTACK_CV                       ; Default to minimum time of 1mS
01A8   01AC           00885         clrf    DECAY_CV
01A9   01AD           00886         clrf    SUSTAIN_CV
01AA   01AE           00887         clrf    RELEASE_CV
01AB   01AF           00888         clrf    TIME_CV                         ; Default to no time modulation
01AC   01B0           00889         clrf    MODE_CV                         ; Default to standard ADSR, no looping
01AD   01AA           00890         clrf    STAGE
MPASM 5.73              NEWPIC_8B_SIMPLE.ASM   4-26-2018  8:17:38         PAGE 18
Voltage-Controlled VCADSR

LOC  OBJECT CODE     LINE SOURCE TEXT
  VALUE

                      00891         ; Clear the Phase Accumulator
01AE   01B7           00892         clrf    PHASE_LO
01AF   01B6           00893         clrf    PHASE_MID
01B0   01B5           00894         clrf    PHASE_HI
                      00895         ; Clear the increments too
01B1   01B8           00896         clrf    ATTACK_INC_LO
01B2   01B9           00897         clrf    ATTACK_INC_MID
01B3   01BA           00898         clrf    ATTACK_INC_HI
01B4   01BE           00899         clrf    DECAY_INC_LO
01B5   01BF           00900         clrf    DECAY_INC_MID
01B6   01C0           00901         clrf    DECAY_INC_HI
01B7   01C1           00902         clrf    RELEASE_INC_LO
01B8   01C2           00903         clrf    RELEASE_INC_MID
01B9   01C3           00904         clrf    RELEASE_INC_HI
                      00905         ; Set up the Punch increment (fixed stage length of about 5msecs)
01BA   30A0           00906         movlw   D'160'
01BB   00BB           00907         movwf   PUNCH_INC_LO
01BC   00BC           00908         movwf   PUNCH_INC_MID
01BD   3001           00909         movlw   D'1'
01BE   00BD           00910         movwf   PUNCH_INC_HI
                      00911         ; Clear the output buffers
01BF   01F6           00912         clrf    OUTPUT_HI
01C0   01F7           00913         clrf    OUTPUT_LO
                      00914         ; Set upo the ADC channel scan
01C1   3007           00915         movlw   D'7'
01C2   00F2           00916         movwf   ADC_CHANNEL                     ; Start with ATTACK_CV
                      00917         ; The first Attack starts at zero
01C3   01F4           00918         clrf    START_HI
01C4   01F5           00919         clrf    START_LO
                      00920         ; Set up the GATE & TRIGGER debounce
01C5   01B1           00921         clrf    DEBOUNCE_HI
01C6   01B2           00922         clrf    DEBOUNCE_LO
01C7   01B3           00923         clrf    STATES
01C8   01B4           00924         clrf    CHANGES
                      00925         
                      00926 ; Ok, that's all the setup done, let's get going
                      00927 
                      00928         ; Start outputting signals      
01C9   0020           00929         movlb   D'0'                            ; Bank 0        
01CA   179C           00930         bsf             T2CON, TMR2ON           ; Turn timer 2 on       
                      00931 
                      00932 
01CB                  00933 MainLoop:
                      00934         ; Change to next A/D channel
01CB   0AF2           00935         incf    ADC_CHANNEL, f
                      00936 
                      00937 ; We need to do different things depending on which value we're reading:
01CC                  00938 SelectADCChannel:
01CC   0872           00939         movf    ADC_CHANNEL, w          ; Get current channel
01CD   3907           00940         andlw   D'7'                            ; Only want 3 LSBs
01CE   000B           00941         brw                                                     ; Computed branch
01CF   2???           00942         goto    AttackCV
01D0   2???           00943         goto    DecayCV
MPASM 5.73              NEWPIC_8B_SIMPLE.ASM   4-26-2018  8:17:38         PAGE 19
Voltage-Controlled VCADSR

LOC  OBJECT CODE     LINE SOURCE TEXT
  VALUE

01D1   2???           00944         goto    SustainCV
01D2   2???           00945         goto    ReleaseCV
01D3   2???           00946         goto    TimeCV
01D4   2???           00947         goto    ModeCV
                      00948 
01D5                  00949 ScannedAllChannels:
                      00950         ; Reset ADC channel 
01D5   3007           00951         movlw   D'7'
01D6   00F2           00952         movwf   ADC_CHANNEL
01D7   2???           00953         goto    MainLoop
                      00954 
                      00955 
                      00956 ; Update the Attack CV
01D8                  00957 AttackCV:
01D8   3001           00958         movlw   b'00000001'     ; AN0, ADC On
01D9   2???           00959         call    DoADConversion
01DA   00AB           00960         movwf   ATTACK_CV
                      00961         ; Subtract the TIME_CV (Increasing TIME_CV shortens the Env)
01DB   082F           00962         movfw   TIME_CV
01DC   022B           00963         subwf   ATTACK_CV, w
01DD   1C03           00964         btfss   BORROW
01DE   3000           00965         movlw   D'0'                            ; If value is <0, use minimum
                      00966         ; Get the new phase increment for the ATTACK stage
01DF   0084           00967         movwf   FSR0L                           ; Store index
01E0   30??           00968         movlw   HIGH ControlLookupHi; Get table page
01E1   0085           00969         movwf   FSR0H
01E2   0800           00970         movf    INDF0, w                        ; Get high byte
01E3   00BA           00971         movwf   ATTACK_INC_HI           ; Store it
01E4   0A85           00972         incf    FSR0H, f                        ; Move to mid table
01E5   0800           00973         movf    INDF0, w                        ; etc..
01E6   00B9           00974         movwf   ATTACK_INC_MID
01E7   0A85           00975         incf    FSR0H, f                        ; Move to lo table
01E8   0800           00976         movf    INDF0, w
01E9   00B8           00977         movwf   ATTACK_INC_LO
01EA   2???           00978         goto    MainLoop
                      00979 
                      00980 
                      00981 ; Update the Decay CV
01EB                  00982 DecayCV:
01EB   3009           00983         movlw   b'00001001'                     ; AN2, ADC On
01EC   2???           00984         call    DoADConversion
01ED   00AC           00985         movwf   DECAY_CV
                      00986         ; Subtract the TIME_CV (Increasing TIME_CV shortens the Env)
01EE   082F           00987         movfw   TIME_CV
01EF   022C           00988         subwf   DECAY_CV, w
01F0   1C03           00989         btfss   BORROW
01F1   3000           00990         movlw   D'0'                            ; If value is <0, use minimum
                      00991         ; Get the new phase increment for the DECAY stage
01F2   0084           00992         movwf   FSR0L                           ; Store index
01F3   30??           00993         movlw   HIGH ControlLookupHi; Get table page
01F4   0085           00994         movwf   FSR0H
01F5   0800           00995         movf    INDF0, w                        ; Get high byte
01F6   00C0           00996         movwf   DECAY_INC_HI            ; Store it
MPASM 5.73              NEWPIC_8B_SIMPLE.ASM   4-26-2018  8:17:38         PAGE 20
Voltage-Controlled VCADSR

LOC  OBJECT CODE     LINE SOURCE TEXT
  VALUE

01F7   0A85           00997         incf    FSR0H, f                        ; Move to mid table
01F8   0800           00998         movf    INDF0, w                        ; etc..
01F9   00BF           00999         movwf   DECAY_INC_MID
01FA   0A85           01000         incf    FSR0H, f                        ; Move to lo table
01FB   0800           01001         movf    INDF0, w
01FC   00BE           01002         movwf   DECAY_INC_LO
01FD   2???           01003         goto    MainLoop
                      01004 
                      01005 
                      01006 ; Update the Sustain CV
01FE                  01007 SustainCV:
01FE   3011           01008         movlw   b'00010001'                     ; AN4, ADC On
01FF   2???           01009         call    DoADConversion
0200   00AD           01010         movwf   SUSTAIN_CV                      ; Simply store this one- easy!
0201   2???           01011         goto    MainLoop
                      01012 
                      01013 
                      01014 ; Update the Release CV
0202                  01015 ReleaseCV:
0202   3015           01016         movlw   b'00010101'                     ; AN5, ADC On
0203   2???           01017         call    DoADConversion
0204   00AE           01018         movwf   RELEASE_CV
                      01019         ; Subtract the TIME_CV (Increasing TIME_CV shortens the Env)
0205   082F           01020         movfw   TIME_CV
0206   022E           01021         subwf   RELEASE_CV, w
0207   1C03           01022         btfss   BORROW
0208   3000           01023         movlw   D'0'                            ; If value is <0, use minimum
                      01024         ; Get the new phase increment for the RELEASE stage
0209   0084           01025         movwf   FSR0L                           ; Store index
020A   30??           01026         movlw   HIGH ControlLookupHi; Get table page
020B   0085           01027         movwf   FSR0H
020C   0800           01028         movf    INDF0, w                        ; Get high byte
020D   00C3           01029         movwf   RELEASE_INC_HI          ; Store it
020E   0A85           01030         incf    FSR0H, f                        ; Move to mid table
020F   0800           01031         movf    INDF0, w                        ; etc..
0210   00C2           01032         movwf   RELEASE_INC_MID
0211   0A85           01033         incf    FSR0H, f                        ; Move to lo table
0212   0800           01034         movf    INDF0, w
0213   00C1           01035         movwf   RELEASE_INC_LO
0214   2???           01036         goto    MainLoop
                      01037 
                      01038 
                      01039 ; Update the Time CV
0215                  01040 TimeCV:
0215   301D           01041         movlw   b'00011101'                     ; AN7, ADC On
0216   2???           01042         call    DoADConversion
                      01043         ; Put the value into TIME_CV where we can work on it
0217   00AF           01044         movwf   TIME_CV
                      01045         ; Reduce the resolution of the TIME CV so it isn't so extreme
0218   36AF           01046         lsrf    TIME_CV, f                      ; 0-127 Time CV
                      01047         ; Note that there is no glitch problem here, since the
                      01048         ; value can be updated in a single instruction.
0219   2???           01049         goto    MainLoop
MPASM 5.73              NEWPIC_8B_SIMPLE.ASM   4-26-2018  8:17:38         PAGE 21
Voltage-Controlled VCADSR

LOC  OBJECT CODE     LINE SOURCE TEXT
  VALUE

                      01050 
                      01051         
                      01052 ; Update the Mode (ENV, LOOP, LFO)
021A                  01053 ModeCV:
021A   300D           01054         movlw   b'00001101'                     ; AN3, ADC On
021B   2???           01055         call    DoADConversion
                      01056         ; If both the top bits are set, we have LFO mode
                      01057         ; If neither top bit is set, we have Envelope mode
                      01058         ; Otherwise we have Looping envelope mode
                      01059         ; There's no hysteresis on this since I assume that the
                      01060         ; possible values are far apart.
021C   39C0           01061         andlw   B'11000000'             ; Get just the top two bits
021D   0630           01062         xorwf   MODE_CV, w              ; Is it different from the current mode?
021E   1903           01063         btfsc   ZERO
021F   2???           01064         goto    MainLoop                ; No, it's not
                      01065         ; Store the new Mode CV
0220   0873           01066         movf    ADC_VALUE, w
0221   39C0           01067         andlw   B'11000000'             ; Get just the top two bits
0222   00B0           01068         movwf   MODE_CV
                      01069 
                      01070 ; Now set one of the three modes from the MODE_CV value
0223                  01071 TestEnvelopeMode:
                      01072         ; Both bits clear is Envelope Mode
0223   1BB0           01073         btfsc   MODE_CV, 7              ; Test the highest bit
0224   2???           01074         goto    TestLFOMode
0225   1B30           01075         btfsc   MODE_CV, 6              ; Test the next-highest bit
0226   2???           01076         goto    TestLFOMode
                      01077         ; Ok, we're in Envelope Mode
0227                  01078 SetEnvelopeMode:
0227   10F1           01079         bcf             LOOPING                 ; A normal envelope
0228   1071           01080         bcf             LFO_MODE
0229   2???           01081         goto    MainLoop
                      01082 
022A                  01083 TestLFOMode:
                      01084         ; Both bits set is LFO mode
022A   1FB0           01085         btfss   MODE_CV, 7              ; Test the highest bit
022B   2???           01086         goto    SetLoopingEnvelopeMode
022C   1F30           01087         btfss   MODE_CV, 6              ; Test the next-highest bit
022D   2???           01088         goto    SetLoopingEnvelopeMode
                      01089         ; Ok, so we're in LFO Mode
022E                  01090 SetLFOMode:
022E   14F1           01091         bsf             LOOPING                 ; This mode loops forever
022F   1471           01092         bsf             LFO_MODE                ; and ignores GATE and TRIGGER
                      01093         ; Start the envelope
0230   01B5           01094         clrf    PHASE_HI
0231   01B6           01095         clrf    PHASE_MID
0232   01B7           01096         clrf    PHASE_LO
0233   0876           01097         movf    OUTPUT_HI, w    ; What's the current output level?
0234   00F4           01098         movwf   START_HI
0235   0877           01099         movf    OUTPUT_LO, w
0236   00F5           01100         movwf   START_LO
0237   3001           01101         movlw   D'1'                    ; Start the attack
0238   00AA           01102         movwf   STAGE
MPASM 5.73              NEWPIC_8B_SIMPLE.ASM   4-26-2018  8:17:38         PAGE 22
Voltage-Controlled VCADSR

LOC  OBJECT CODE     LINE SOURCE TEXT
  VALUE

0239   2???           01103         goto    MainLoop
                      01104 
                      01105 ; If we got to here, there's only one other option
023A                  01106 SetLoopingEnvelopeMode:
023A   14F1           01107         bsf             LOOPING                 ; This mode loops, but only
023B   1071           01108         bcf             LFO_MODE                ; while the GATE is high
                      01109         ; Are we stuck in the Sustain stage?
023C   082A           01110         movf    STAGE, w
023D   3A04           01111         xorlw   D'4'
023E   1D03           01112         btfss   ZERO                    ; Is STAGE==4 yet? (SUSTAIN)
023F   2???           01113         goto    MainLoop                ; No, so that's fine
                      01114         ; Yes, we're in the Sustain stage, so jump directly to Release
0240   0876           01115         movf    OUTPUT_HI, w    ; What's the current output level?
0241   00F4           01116         movwf   START_HI
0242   0877           01117         movf    OUTPUT_LO, w
0243   00F5           01118         movwf   START_LO
                      01119         ; Move to RELEASE stage
0244   3005           01120         movlw   D'5'
0245   00AA           01121         movwf   STAGE
                      01122         ; Ok, all done
0246   2???           01123         goto    MainLoop
                      01124         
                      01125 
                      01126         
                      01127 ;-------------------------------------------------------
                      01128 ;       Control Lookup Tables (3 tables of 256 x 8-bit)
                      01129 ; Converts from 0-255 CV input to 20 bit PHASE_INC value
                      01130 ; The tables should be aligned to a 256-byte page boundary
                      01131 ;-------------------------------------------------------
                      01132 
                      01133  org     0x300                                  ; Need to start at 0x100 boundary
0300                  01134 ControlLookupHi:
0300   340B 340A 340A 01135         dt      D'11', D'10', D'10', D'9', D'8', D'8', D'7', D'7'
       3409 3408 3408 
       3407 3407 
0308   3407 3406 3406 01136         dt      D'7', D'6', D'6', D'5', D'5', D'5', D'5', D'4'
       3405 3405 3405 
       3405 3404 
0310   3404 3404 3404 01137         dt      D'4', D'4', D'4', D'4', D'3', D'3', D'3', D'3'
       3404 3403 3403 
       3403 3403 
0318   3403 3403 3403 01138         dt      D'3', D'3', D'3', D'2', D'2', D'2', D'2', D'2'
       3402 3402 3402 
       3402 3402 
0320   3402 3402 3402 01139         dt      D'2', D'2', D'2', D'2', D'2', D'1', D'1', D'1'
       3402 3402 3401 
       3401 3401 
0328   3401 3401 3401 01140         dt      D'1', D'1', D'1', D'1', D'1', D'1', D'1', D'1'
       3401 3401 3401 
       3401 3401 
0330   3401 3401 3401 01141         dt      D'1', D'1', D'1', D'1', D'1', D'1', D'1', D'1'
       3401 3401 3401 
       3401 3401 
MPASM 5.73              NEWPIC_8B_SIMPLE.ASM   4-26-2018  8:17:38         PAGE 23
Voltage-Controlled VCADSR

LOC  OBJECT CODE     LINE SOURCE TEXT
  VALUE

0338   3400 3400 3400 01142         dt      D'0', D'0', D'0', D'0', D'0', D'0', D'0', D'0'
       3400 3400 3400 
       3400 3400 
                      01143 
0340   3400 3400 3400 01144         dt      D'0', D'0', D'0', D'0', D'0', D'0', D'0', D'0'
       3400 3400 3400 
       3400 3400 
0348   3400 3400 3400 01145         dt      D'0', D'0', D'0', D'0', D'0', D'0', D'0', D'0'
       3400 3400 3400 
       3400 3400 
0350   3400 3400 3400 01146         dt      D'0', D'0', D'0', D'0', D'0', D'0', D'0', D'0'
       3400 3400 3400 
       3400 3400 
0358   3400 3400 3400 01147         dt      D'0', D'0', D'0', D'0', D'0', D'0', D'0', D'0'
       3400 3400 3400 
       3400 3400 
0360   3400 3400 3400 01148         dt      D'0', D'0', D'0', D'0', D'0', D'0', D'0', D'0'
       3400 3400 3400 
       3400 3400 
0368   3400 3400 3400 01149         dt      D'0', D'0', D'0', D'0', D'0', D'0', D'0', D'0'
       3400 3400 3400 
       3400 3400 
0370   3400 3400 3400 01150         dt      D'0', D'0', D'0', D'0', D'0', D'0', D'0', D'0'
       3400 3400 3400 
       3400 3400 
0378   3400 3400 3400 01151         dt      D'0', D'0', D'0', D'0', D'0', D'0', D'0', D'0'
       3400 3400 3400 
       3400 3400 
                      01152 
0380   3400 3400 3400 01153         dt      D'0', D'0', D'0', D'0', D'0', D'0', D'0', D'0'
       3400 3400 3400 
       3400 3400 
0388   3400 3400 3400 01154         dt      D'0', D'0', D'0', D'0', D'0', D'0', D'0', D'0'
       3400 3400 3400 
       3400 3400 
0390   3400 3400 3400 01155         dt      D'0', D'0', D'0', D'0', D'0', D'0', D'0', D'0'
       3400 3400 3400 
       3400 3400 
0398   3400 3400 3400 01156         dt      D'0', D'0', D'0', D'0', D'0', D'0', D'0', D'0'
       3400 3400 3400 
       3400 3400 
03A0   3400 3400 3400 01157         dt      D'0', D'0', D'0', D'0', D'0', D'0', D'0', D'0'
       3400 3400 3400 
       3400 3400 
03A8   3400 3400 3400 01158         dt      D'0', D'0', D'0', D'0', D'0', D'0', D'0', D'0'
       3400 3400 3400 
       3400 3400 
03B0   3400 3400 3400 01159         dt      D'0', D'0', D'0', D'0', D'0', D'0', D'0', D'0'
       3400 3400 3400 
       3400 3400 
03B8   3400 3400 3400 01160         dt      D'0', D'0', D'0', D'0', D'0', D'0', D'0', D'0'
       3400 3400 3400 
       3400 3400 
MPASM 5.73              NEWPIC_8B_SIMPLE.ASM   4-26-2018  8:17:38         PAGE 24
Voltage-Controlled VCADSR

LOC  OBJECT CODE     LINE SOURCE TEXT
  VALUE

                      01161 
03C0   3400 3400 3400 01162         dt      D'0', D'0', D'0', D'0', D'0', D'0', D'0', D'0'
       3400 3400 3400 
       3400 3400 
03C8   3400 3400 3400 01163         dt      D'0', D'0', D'0', D'0', D'0', D'0', D'0', D'0'
       3400 3400 3400 
       3400 3400 
03D0   3400 3400 3400 01164         dt      D'0', D'0', D'0', D'0', D'0', D'0', D'0', D'0'
       3400 3400 3400 
       3400 3400 
03D8   3400 3400 3400 01165         dt      D'0', D'0', D'0', D'0', D'0', D'0', D'0', D'0'
       3400 3400 3400 
       3400 3400 
03E0   3400 3400 3400 01166         dt      D'0', D'0', D'0', D'0', D'0', D'0', D'0', D'0'
       3400 3400 3400 
       3400 3400 
03E8   3400 3400 3400 01167         dt      D'0', D'0', D'0', D'0', D'0', D'0', D'0', D'0'
       3400 3400 3400 
       3400 3400 
03F0   3400 3400 3400 01168         dt      D'0', D'0', D'0', D'0', D'0', D'0', D'0', D'0'
       3400 3400 3400 
       3400 3400 
03F8   3400 3400 3400 01169         dt      D'0', D'0', D'0', D'0', D'0', D'0', D'0', D'0'
       3400 3400 3400 
       3400 3400 
                      01170 
                      01171 
0400                  01172 ControlLookupMid:
0400   34B3 34E1 3426 01173         dt      D'179', D'225', D'38', D'126', D'231', D'94', D'226', D'112'
       347E 34E7 345E 
       34E2 3470 
0408   3408 34A8 3450 01174         dt      D'8', D'168', D'80', D'254', D'178', D'107', D'41', D'235'
       34FE 34B2 346B 
       3429 34EB 
0410   34B2 347B 3448 01175         dt      D'178', D'123', D'72', D'24', D'235', D'192', D'152', D'114'
       3418 34EB 34C0 
       3498 3472 
0418   344D 342B 340A 01176         dt      D'77', D'43', D'10', D'235', D'206', D'178', D'151', D'125'
       34EB 34CE 34B2 
       3497 347D 
0420   3465 344D 3437 01177         dt      D'101', D'77', D'55', D'34', D'13', D'250', D'231', D'213'
       3422 340D 34FA 
       34E7 34D5 
0428   34C4 34B3 34A3 01178         dt      D'196', D'179', D'163', D'148', D'133', D'119', D'106', D'93'
       3494 3485 3477 
       346A 345D 
0430   3450 3444 3439 01179         dt      D'80', D'68', D'57', D'45', D'35', D'24', D'14', D'5'
       342D 3423 3418 
       340E 3405 
0438   34FC 34F3 34EA 01180         dt      D'252', D'243', D'234', D'226', D'218', D'210', D'203', D'196'
       34E2 34DA 34D2 
       34CB 34C4 
                      01181 
MPASM 5.73              NEWPIC_8B_SIMPLE.ASM   4-26-2018  8:17:38         PAGE 25
Voltage-Controlled VCADSR

LOC  OBJECT CODE     LINE SOURCE TEXT
  VALUE

0440   34BD 34B6 34B0 01182         dt      D'189', D'182', D'176', D'170', D'164', D'158', D'152', D'147'
       34AA 34A4 349E 
       3498 3493 
0448   348E 3489 3484 01183         dt      D'142', D'137', D'132', D'128', D'123', D'119', D'115', D'111'
       3480 347B 3477 
       3473 346F 
0450   346B 3467 3463 01184         dt      D'107', D'103', D'99', D'96', D'92', D'89', D'86', D'83'
       3460 345C 3459 
       3456 3453 
0458   3450 344D 344B 01185         dt      D'80', D'77', D'75', D'72', D'69', D'67', D'65', D'62'
       3448 3445 3443 
       3441 343E 
0460   343C 343A 3438 01186         dt      D'60', D'58', D'56', D'54', D'52', D'50', D'48', D'47'
       3436 3434 3432 
       3430 342F 
0468   342D 342B 342A 01187         dt      D'45', D'43', D'42', D'40', D'39', D'38', D'36', D'35'
       3428 3427 3426 
       3424 3423 
0470   3422 3420 341F 01188         dt      D'34', D'32', D'31', D'30', D'29', D'28', D'27', D'26'
       341E 341D 341C 
       341B 341A 
0478   3419 3418 3417 01189         dt      D'25', D'24', D'23', D'22', D'22', D'21', D'20', D'19'
       3416 3416 3415 
       3414 3413 
                      01190 
0480   3413 3412 3411 01191         dt      D'19', D'18', D'17', D'17', D'16', D'16', D'15', D'14'
       3411 3410 3410 
       340F 340E 
0488   340E 340D 340D 01192         dt      D'14', D'13', D'13', D'12', D'12', D'11', D'11', D'11'
       340C 340C 340B 
       340B 340B 
0490   340A 340A 340A 01193         dt      D'10', D'10', D'10', D'9', D'9', D'8', D'8', D'8'
       3409 3409 3408 
       3408 3408 
0498   3408 3407 3407 01194         dt      D'8', D'7', D'7', D'7', D'6', D'6', D'6', D'6'
       3407 3406 3406 
       3406 3406 
04A0   3406 3405 3405 01195         dt      D'6', D'5', D'5', D'5', D'5', D'5', D'4', D'4'
       3405 3405 3405 
       3404 3404 
04A8   3404 3404 3404 01196         dt      D'4', D'4', D'4', D'4', D'3', D'3', D'3', D'3'
       3404 3403 3403 
       3403 3403 
04B0   3403 3403 3403 01197         dt      D'3', D'3', D'3', D'3', D'2', D'2', D'2', D'2'
       3403 3402 3402 
       3402 3402 
04B8   3402 3402 3402 01198         dt      D'2', D'2', D'2', D'2', D'2', D'2', D'2', D'1'
       3402 3402 3402 
       3402 3401 
                      01199 
04C0   3401 3401 3401 01200         dt      D'1', D'1', D'1', D'1', D'1', D'1', D'1', D'1'
       3401 3401 3401 
       3401 3401 
MPASM 5.73              NEWPIC_8B_SIMPLE.ASM   4-26-2018  8:17:38         PAGE 26
Voltage-Controlled VCADSR

LOC  OBJECT CODE     LINE SOURCE TEXT
  VALUE

04C8   3401 3401 3401 01201         dt      D'1', D'1', D'1', D'1', D'1', D'1', D'1', D'1'
       3401 3401 3401 
       3401 3401 
04D0   3401 3401 3400 01202         dt      D'1', D'1', D'0', D'0', D'0', D'0', D'0', D'0'
       3400 3400 3400 
       3400 3400 
04D8   3400 3400 3400 01203         dt      D'0', D'0', D'0', D'0', D'0', D'0', D'0', D'0'
       3400 3400 3400 
       3400 3400 
04E0   3400 3400 3400 01204         dt      D'0', D'0', D'0', D'0', D'0', D'0', D'0', D'0'
       3400 3400 3400 
       3400 3400 
04E8   3400 3400 3400 01205         dt      D'0', D'0', D'0', D'0', D'0', D'0', D'0', D'0'
       3400 3400 3400 
       3400 3400 
04F0   3400 3400 3400 01206         dt      D'0', D'0', D'0', D'0', D'0', D'0', D'0', D'0'
       3400 3400 3400 
       3400 3400 
04F8   3400 3400 3400 01207         dt      D'0', D'0', D'0', D'0', D'0', D'0', D'0', D'0'
       3400 3400 3400 
       3400 3400 
                      01208 
                      01209 
0500                  01210 ControlLookupLo:
0500   34EE 349E 346D 01211         dt      D'238', D'158', D'109', D'192', D'180', D'241', D'137', D'231'
       34C0 34B4 34F1 
       3489 34E7 
0508   34B5 34D6 3457 01212         dt      D'181', D'214', D'87', D'106', D'93', D'152', D'149', D'224'
       346A 345D 3498 
       3495 34E0 
0510   3415 34D9 34DE 01213         dt      D'21', D'217', D'222', D'222', D'155', D'222', D'117', D'50'
       34DE 349B 34DE 
       3475 3432 
0518   34EF 3486 34D7 01214         dt      D'239', D'134', D'215', D'195', D'48', D'5', D'43', D'141'
       34C3 3430 3405 
       342B 348D 
0520   3418 34BB 3466 01215         dt      D'24', D'187', D'102', D'9', D'151', D'3', D'65', D'70'
       3409 3497 3403 
       3441 3446 
0528   3408 347D 349D 01216         dt      D'8', D'125', D'157', D'94', D'186', D'169', D'35', D'36'
       345E 34BA 34A9 
       3423 3424 
0530   34A3 349D 340B 01217         dt      D'163', D'157', D'11', D'232', D'48', D'222', D'238', D'91'
       34E8 3430 34DE 
       34EE 345B 
0538   3422 343F 34AF 01218         dt      D'34', D'63', D'175', D'110', D'122', D'207', D'106', D'72'
       346E 347A 34CF 
       346A 3448 
                      01219 
0540   3468 34C6 3461 01220         dt      D'104', D'198', D'97', D'53', D'66', D'132', D'249', D'161'
       3435 3442 3484 
       34F9 34A1 
0548   3478 347E 34B1 01221         dt      D'120', D'126', D'177', D'14', D'149', D'68', D'25', D'19'
MPASM 5.73              NEWPIC_8B_SIMPLE.ASM   4-26-2018  8:17:38         PAGE 27
Voltage-Controlled VCADSR

LOC  OBJECT CODE     LINE SOURCE TEXT
  VALUE

       340E 3495 3444 
       3419 3413 
0550   3432 3473 34D5 01222         dt      D'50', D'115', D'213', D'87', D'249', D'184', D'149', D'141'
       3457 34F9 34B8 
       3495 348D 
0558   34A0 34CD 3414 01223         dt      D'160', D'205', D'20', D'114', D'232', D'117', D'23', D'207'
       3472 34E8 3475 
       3417 34CF 
0560   349A 347A 346C 01224         dt      D'154', D'122', D'108', D'112', D'135', D'174', D'230', D'45'
       3470 3487 34AE 
       34E6 342D 
0568   3484 34EA 345E 01225         dt      D'132', D'234', D'94', D'224', D'111', D'11', D'179', D'104'
       34E0 346F 340B 
       34B3 3468 
0570   3428 34F3 34C9 01226         dt      D'40', D'243', D'201', D'170', D'148', D'137', D'134', D'141'
       34AA 3494 3489 
       3486 348D 
0578   349D 34B4 34D4 01227         dt      D'157', D'180', D'212', D'252', D'44', D'99', D'161', D'229'
       34FC 342C 3463 
       34A1 34E5 
                      01228 
0580   3431 3482 34DA 01229         dt      D'49', D'130', D'218', D'56', D'155', D'4', D'115', D'230'
       3438 349B 3404 
       3473 34E6 
0588   345F 34DC 345E 01230         dt      D'95', D'220', D'94', D'228', D'110', D'253', D'144', D'39'
       34E4 346E 34FD 
       3490 3427 
0590   34C1 345F 3400 01231         dt      D'193', D'95', D'0', D'165', D'77', D'248', D'166', D'87'
       34A5 344D 34F8 
       34A6 3457 
0598   340B 34C2 347B 01232         dt      D'11', D'194', D'123', D'55', D'245', D'181', D'120', D'61'
       3437 34F5 34B5 
       3478 343D 
05A0   3404 34CD 3498 01233         dt      D'4', D'205', D'152', D'101', D'51', D'4', D'214', D'170'
       3465 3433 3404 
       34D6 34AA 
05A8   347F 3456 342E 01234         dt      D'127', D'86', D'46', D'8', D'227', D'191', D'157', D'124'
       3408 34E3 34BF 
       349D 347C 
05B0   345C 343D 3420 01235         dt      D'92', D'61', D'32', D'3', D'231', D'205', D'179', D'154'
       3403 34E7 34CD 
       34B3 349A 
05B8   3483 346C 3455 01236         dt      D'131', D'108', D'85', D'64', D'43', D'23', D'4', D'242'
       3440 342B 3417 
       3404 34F2 
                      01237 
05C0   34E0 34CF 34BE 01238         dt      D'224', D'207', D'190', D'174', D'159', D'144', D'130', D'116'
       34AE 349F 3490 
       3482 3474 
05C8   3466 345A 344D 01239         dt      D'102', D'90', D'77', D'65', D'54', D'43', D'32', D'22'
       3441 3436 342B 
       3420 3416 
05D0   340C 3402 34F9 01240         dt      D'12', D'2', D'249', D'240', D'231', D'223', D'215', D'207'
MPASM 5.73              NEWPIC_8B_SIMPLE.ASM   4-26-2018  8:17:38         PAGE 28
Voltage-Controlled VCADSR

LOC  OBJECT CODE     LINE SOURCE TEXT
  VALUE

       34F0 34E7 34DF 
       34D7 34CF 
05D8   34C8 34C1 34BA 01241         dt      D'200', D'193', D'186', D'179', D'173', D'167', D'161', D'155'
       34B3 34AD 34A7 
       34A1 349B 
05E0   3495 3490 348B 01242         dt      D'149', D'144', D'139', D'134', D'129', D'124', D'120', D'116'
       3486 3481 347C 
       3478 3474 
05E8   346F 346B 3468 01243         dt      D'111', D'107', D'104', D'100', D'96', D'93', D'90', D'86'
       3464 3460 345D 
       345A 3456 
05F0   3453 3450 344D 01244         dt      D'83', D'80', D'77', D'75', D'72', D'69', D'67', D'64'
       344B 3448 3445 
       3443 3440 
05F8   343E 343C 343A 01245         dt      D'62', D'60', D'58', D'56', D'54', D'52', D'50', D'48'
       3438 3436 3434 
       3432 3430 
                      01246 
                      01247 
                      01248 ;------------------------------------------------------------------------------
                      01249 ;       Curve Lookup Tables (2 tables of 257 x 16-bit, Low byte, high byte)
                      01250 ; The Attack and Decay/Release curves are stored separately.
                      01251 ; This is because the Attack curve heads towards 6.5V but stops at 5V,
                      01252 ; whereas the Decay/Release curves actually arrive at their destination value.
                      01253 ; Note that because the linear count goes UP in all cases and
                      01254 ; hence needs inverting for Decay/Release, the Decay/Release curve is the same
                      01255 ; way up as the Attack. This way it gets the same inversion as the linear count,
                      01256 ; which makes life marginally simpler.
                      01257 ;------------------------------------------------------------------------------
                      01258  org     0x600                                  ; Need to start at page boundary
0600                  01259 AttackCurve:
0600   3400 3400 34E7 01260         dt      D'0', D'0', D'231', D'1', D'202', D'3', D'171', D'5'
       3401 34CA 3403 
       34AB 3405 
0608   348A 3407 3465 01261         dt      D'138', D'7', D'101', D'9', D'62', D'11', D'20', D'13'
       3409 343E 340B 
       3414 340D 
0610   34E8 340E 34B9 01262         dt      D'232', D'14', D'185', D'16', D'135', D'18', D'82', D'20'
       3410 3487 3412 
       3452 3414 
0618   341B 3416 34E1 01263         dt      D'27', D'22', D'225', D'23', D'165', D'25', D'102', D'27'
       3417 34A5 3419 
       3466 341B 
0620   3425 341D 34E1 01264         dt      D'37', D'29', D'225', D'30', D'154', D'32', D'81', D'34'
       341E 349A 3420 
       3451 3422 
0628   3406 3424 34B7 01265         dt      D'6', D'36', D'183', D'37', D'103', D'39', D'20', D'41'
       3425 3467 3427 
       3414 3429 
0630   34BE 342A 3466 01266         dt      D'190', D'42', D'102', D'44', D'12', D'46', D'175', D'47'
       342C 340C 342E 
       34AF 342F 
0638   3450 3431 34EF 01267         dt      D'80', D'49', D'239', D'50', D'139', D'52', D'37', D'54'
MPASM 5.73              NEWPIC_8B_SIMPLE.ASM   4-26-2018  8:17:38         PAGE 29
Voltage-Controlled VCADSR

LOC  OBJECT CODE     LINE SOURCE TEXT
  VALUE

       3432 348B 3434 
       3425 3436 
                      01268 
0640   34BC 3437 3451 01269         dt      D'188', D'55', D'81', D'57', D'228', D'58', D'116', D'60'
       3439 34E4 343A 
       3474 343C 
0648   3403 343E 348F 01270         dt      D'3', D'62', D'143', D'63', D'24', D'65', D'160', D'66'
       343F 3418 3441 
       34A0 3442 
0650   3425 3444 34A8 01271         dt      D'37', D'68', D'168', D'69', D'41', D'71', D'167', D'72'
       3445 3429 3447 
       34A7 3448 
0658   3423 344A 349E 01272         dt      D'35', D'74', D'158', D'75', D'22', D'77', D'140', D'78'
       344B 3416 344D 
       348C 344E 
0660   34FF 344F 3471 01273         dt      D'255', D'79', D'113', D'81', D'224', D'82', D'78', D'84'
       3451 34E0 3452 
       344E 3454 
0668   34B9 3455 3422 01274         dt      D'185', D'85', D'34', D'87', D'138', D'88', D'239', D'89'
       3457 348A 3458 
       34EF 3459 
0670   3452 345B 34B3 01275         dt      D'82', D'91', D'179', D'92', D'18', D'94', D'111', D'95'
       345C 3412 345E 
       346F 345F 
0678   34CA 3460 3423 01276         dt      D'202', D'96', D'35', D'98', D'122', D'99', D'207', D'100'
       3462 347A 3463 
       34CF 3464 
                      01277 
0680   3423 3466 3474 01278         dt      D'35', D'102', D'116', D'103', D'195', D'104', D'17', D'106'
       3467 34C3 3468 
       3411 346A 
0688   345C 346B 34A6 01279         dt      D'92', D'107', D'166', D'108', D'238', D'109', D'51', D'111'
       346C 34EE 346D 
       3433 346F 
0690   3477 3470 34BA 01280         dt      D'119', D'112', D'186', D'113', D'250', D'114', D'56', D'116'
       3471 34FA 3472 
       3438 3474 
0698   3475 3475 34B0 01281         dt      D'117', D'117', D'176', D'118', D'233', D'119', D'32', D'121'
       3476 34E9 3477 
       3420 3479 
06A0   3456 347A 3489 01282         dt      D'86', D'122', D'137', D'123', D'187', D'124', D'236', D'125'
       347B 34BB 347C 
       34EC 347D 
06A8   341A 347F 3447 01283         dt      D'26', D'127', D'71', D'128', D'114', D'129', D'155', D'130'
       3480 3472 3481 
       349B 3482 
06B0   34C3 3483 34E9 01284         dt      D'195', D'131', D'233', D'132', D'13', D'134', D'48', D'135'
       3484 340D 3486 
       3430 3487 
06B8   3451 3488 3470 01285         dt      D'81', D'136', D'112', D'137', D'141', D'138', D'169', D'139'
       3489 348D 348A 
       34A9 348B 
                      01286 
MPASM 5.73              NEWPIC_8B_SIMPLE.ASM   4-26-2018  8:17:38         PAGE 30
Voltage-Controlled VCADSR

LOC  OBJECT CODE     LINE SOURCE TEXT
  VALUE

06C0   34C4 348C 34DD 01287         dt      D'196', D'140', D'221', D'141', D'244', D'142', D'9', D'144'
       348D 34F4 348E 
       3409 3490 
06C8   341D 3491 3430 01288         dt      D'29', D'145', D'48', D'146', D'65', D'147', D'80', D'148'
       3492 3441 3493 
       3450 3494 
06D0   345E 3495 346A 01289         dt      D'94', D'149', D'106', D'150', D'117', D'151', D'126', D'152'
       3496 3475 3497 
       347E 3498 
06D8   3485 3499 348B 01290         dt      D'133', D'153', D'139', D'154', D'144', D'155', D'147', D'156'
       349A 3490 349B 
       3493 349C 
06E0   3495 349D 3495 01291         dt      D'149', D'157', D'149', D'158', D'148', D'159', D'145', D'160'
       349E 3494 349F 
       3491 34A0 
06E8   348D 34A1 3487 01292         dt      D'141', D'161', D'135', D'162', D'128', D'163', D'120', D'164'
       34A2 3480 34A3 
       3478 34A4 
06F0   346E 34A5 3463 01293         dt      D'110', D'165', D'99', D'166', D'86', D'167', D'72', D'168'
       34A6 3456 34A7 
       3448 34A8 
06F8   3438 34A9 3428 01294         dt      D'56', D'169', D'40', D'170', D'21', D'171', D'2', D'172'
       34AA 3415 34AB 
       3402 34AC 
                      01295 
0700   34ED 34AC 34D7 01296         dt      D'237', D'172', D'215', D'173', D'191', D'174', D'166', D'175'
       34AD 34BF 34AE 
       34A6 34AF 
0708   348C 34B0 3470 01297         dt      D'140', D'176', D'112', D'177', D'84', D'178', D'53', D'179'
       34B1 3454 34B2 
       3435 34B3 
0710   3416 34B4 34F5 01298         dt      D'22', D'180', D'245', D'180', D'211', D'181', D'176', D'182'
       34B4 34D3 34B5 
       34B0 34B6 
0718   348B 34B7 3466 01299         dt      D'139', D'183', D'102', D'184', D'63', D'185', D'22', D'186'
       34B8 343F 34B9 
       3416 34BA 
0720   34ED 34BA 34C2 01300         dt      D'237', D'186', D'194', D'187', D'150', D'188', D'105', D'189'
       34BB 3496 34BC 
       3469 34BD 
0728   343B 34BE 340B 01301         dt      D'59', D'190', D'11', D'191', D'218', D'191', D'169', D'192'
       34BF 34DA 34BF 
       34A9 34C0 
0730   3475 34C1 3441 01302         dt      D'117', D'193', D'65', D'194', D'12', D'195', D'213', D'195'
       34C2 340C 34C3 
       34D5 34C3 
0738   349D 34C4 3465 01303         dt      D'157', D'196', D'101', D'197', D'42', D'198', D'239', D'198'
       34C5 342A 34C6 
       34EF 34C6 
                      01304 
0740   34B3 34C7 3476 01305         dt      D'179', D'199', D'118', D'200', D'55', D'201', D'248', D'201'
       34C8 3437 34C9 
       34F8 34C9 
MPASM 5.73              NEWPIC_8B_SIMPLE.ASM   4-26-2018  8:17:38         PAGE 31
Voltage-Controlled VCADSR

LOC  OBJECT CODE     LINE SOURCE TEXT
  VALUE

0748   34B7 34CA 3475 01306         dt      D'183', D'202', D'117', D'203', D'50', D'204', D'238', D'204'
       34CB 3432 34CC 
       34EE 34CC 
0750   34A9 34CD 3463 01307         dt      D'169', D'205', D'99', D'206', D'28', D'207', D'212', D'207'
       34CE 341C 34CF 
       34D4 34CF 
0758   348A 34D0 3440 01308         dt      D'138', D'208', D'64', D'209', D'245', D'209', D'168', D'210'
       34D1 34F5 34D1 
       34A8 34D2 
0760   345B 34D3 340C 01309         dt      D'91', D'211', D'12', D'212', D'189', D'212', D'108', D'213'
       34D4 34BD 34D4 
       346C 34D5 
0768   341B 34D6 34C9 01310         dt      D'27', D'214', D'201', D'214', D'117', D'215', D'33', D'216'
       34D6 3475 34D7 
       3421 34D8 
0770   34CB 34D8 3475 01311         dt      D'203', D'216', D'117', D'217', D'30', D'218', D'197', D'218'
       34D9 341E 34DA 
       34C5 34DA 
0778   346C 34DB 3412 01312         dt      D'108', D'219', D'18', D'220', D'183', D'220', D'90', D'221'
       34DC 34B7 34DC 
       345A 34DD 
                      01313 
0780   34FD 34DD 349F 01314         dt      D'253', D'221', D'159', D'222', D'64', D'223', D'225', D'223'
       34DE 3440 34DF 
       34E1 34DF 
0788   3480 34E0 341E 01315         dt      D'128', D'224', D'30', D'225', D'188', D'225', D'88', D'226'
       34E1 34BC 34E1 
       3458 34E2 
0790   34F4 34E2 348F 01316         dt      D'244', D'226', D'143', D'227', D'40', D'228', D'193', D'228'
       34E3 3428 34E4 
       34C1 34E4 
0798   345A 34E5 34F1 01317         dt      D'90', D'229', D'241', D'229', D'135', D'230', D'29', D'231'
       34E5 3487 34E6 
       341D 34E7 
07A0   34B1 34E7 3445 01318         dt      D'177', D'231', D'69', D'232', D'216', D'232', D'106', D'233'
       34E8 34D8 34E8 
       346A 34E9 
07A8   34FC 34E9 348C 01319         dt      D'252', D'233', D'140', D'234', D'28', D'235', D'171', D'235'
       34EA 341C 34EB 
       34AB 34EB 
07B0   3439 34EC 34C6 01320         dt      D'57', D'236', D'198', D'236', D'82', D'237', D'222', D'237'
       34EC 3452 34ED 
       34DE 34ED 
07B8   3469 34EE 34F3 01321         dt      D'105', D'238', D'243', D'238', D'124', D'239', D'4', D'240'
       34EE 347C 34EF 
       3404 34F0 
                      01322 
07C0   348C 34F0 3413 01323         dt      D'140', D'240', D'19', D'241', D'153', D'241', D'30', D'242'
       34F1 3499 34F1 
       341E 34F2 
07C8   34A3 34F2 3427 01324         dt      D'163', D'242', D'39', D'243', D'170', D'243', D'44', D'244'
       34F3 34AA 34F3 
       342C 34F4 
MPASM 5.73              NEWPIC_8B_SIMPLE.ASM   4-26-2018  8:17:38         PAGE 32
Voltage-Controlled VCADSR

LOC  OBJECT CODE     LINE SOURCE TEXT
  VALUE

07D0   34AE 34F4 342F 01325         dt      D'174', D'244', D'47', D'245', D'175', D'245', D'46', D'246'
       34F5 34AF 34F5 
       342E 34F6 
07D8   34AD 34F6 342B 01326         dt      D'173', D'246', D'43', D'247', D'168', D'247', D'36', D'248'
       34F7 34A8 34F7 
       3424 34F8 
07E0   34A0 34F8 341B 01327         dt      D'160', D'248', D'27', D'249', D'149', D'249', D'15', D'250'
       34F9 3495 34F9 
       340F 34FA 
07E8   3488 34FA 3400 01328         dt      D'136', D'250', D'0', D'251', D'120', D'251', D'239', D'251'
       34FB 3478 34FB 
       34EF 34FB 
07F0   3465 34FC 34DB 01329         dt      D'101', D'252', D'219', D'252', D'80', D'253', D'196', D'253'
       34FC 3450 34FD 
       34C4 34FD 
07F8   3437 34FE 34AA 01330         dt      D'55', D'254', D'170', D'254', D'28', D'255', D'142', D'255'
       34FE 341C 34FF 
       348E 34FF 
                      01331  org     0x800                                  ; Need to start at page boundary
                      01332         ; One extra to make interp simple
0800   34FF 34FF      01333         dt      D'255', D'255'
                      01334 
0802                  01335 DecayCurve:
0802   3400 3400 342D 01336         dt      D'0', D'0', D'45', D'3', D'81', D'6', D'108', D'9'
       3403 3451 3406 
       346C 3409 
080A   347D 340C 3484 01337         dt      D'125', D'12', D'132', D'15', D'131', D'18', D'120', D'21'
       340F 3483 3412 
       3478 3415 
0812   3465 3418 3449 01338         dt      D'101', D'24', D'73', D'27', D'36', D'30', D'246', D'32'
       341B 3424 341E 
       34F6 3420 
081A   34C0 3423 3481 01339         dt      D'192', D'35', D'129', D'38', D'58', D'41', D'235', D'43'
       3426 343A 3429 
       34EB 342B 
0822   3493 342E 3434 01340         dt      D'147', D'46', D'52', D'49', D'204', D'51', D'93', D'54'
       3431 34CC 3433 
       345D 3436 
082A   34E6 3438 3467 01341         dt      D'230', D'56', D'103', D'59', D'225', D'61', D'83', D'64'
       343B 34E1 343D 
       3453 3440 
0832   34BE 3442 3421 01342         dt      D'190', D'66', D'33', D'69', D'126', D'71', D'211', D'73'
       3445 347E 3447 
       34D3 3449 
083A   3421 344C 3468 01343         dt      D'33', D'76', D'104', D'78', D'168', D'80', D'226', D'82'
       344E 34A8 3450 
       34E2 3452 
                      01344 
0842   3414 3455 3440 01345         dt      D'20', D'85', D'64', D'87', D'102', D'89', D'133', D'91'
       3457 3466 3459 
       3485 345B 
084A   349D 345D 34AF 01346         dt      D'157', D'93', D'175', D'95', D'187', D'97', D'193', D'99'
       345F 34BB 3461 
MPASM 5.73              NEWPIC_8B_SIMPLE.ASM   4-26-2018  8:17:38         PAGE 33
Voltage-Controlled VCADSR

LOC  OBJECT CODE     LINE SOURCE TEXT
  VALUE

       34C1 3463 
0852   34C1 3465 34BA 01347         dt      D'193', D'101', D'186', D'103', D'174', D'105', D'155', D'107'
       3467 34AE 3469 
       349B 346B 
085A   3483 346D 3465 01348         dt      D'131', D'109', D'101', D'111', D'66', D'113', D'24', D'115'
       346F 3442 3471 
       3418 3473 
0862   34EA 3474 34B5 01349         dt      D'234', D'116', D'181', D'118', D'123', D'120', D'60', D'122'
       3476 347B 3478 
       343C 347A 
086A   34F8 347B 34AE 01350         dt      D'248', D'123', D'174', D'125', D'95', D'127', D'11', D'129'
       347D 345F 347F 
       340B 3481 
0872   34B2 3482 3454 01351         dt      D'178', D'130', D'84', D'132', D'241', D'133', D'137', D'135'
       3484 34F1 3485 
       3489 3487 
087A   341D 3489 34AB 01352         dt      D'29', D'137', D'171', D'138', D'53', D'140', D'186', D'141'
       348A 3435 348C 
       34BA 348D 
                      01353 
0882   343B 348F 34B7 01354         dt      D'59', D'143', D'183', D'144', D'46', D'146', D'161', D'147'
       3490 342E 3492 
       34A1 3493 
088A   3410 3495 347A 01355         dt      D'16', D'149', D'122', D'150', D'224', D'151', D'66', D'153'
       3496 34E0 3497 
       3442 3499 
0892   34A0 349A 34FA 01356         dt      D'160', D'154', D'250', D'155', D'79', D'157', D'160', D'158'
       349B 344F 349D 
       34A0 349E 
089A   34EE 349F 3437 01357         dt      D'238', D'159', D'55', D'161', D'125', D'162', D'191', D'163'
       34A1 347D 34A2 
       34BF 34A3 
08A2   34FD 34A4 3437 01358         dt      D'253', D'164', D'55', D'166', D'109', D'167', D'160', D'168'
       34A6 346D 34A7 
       34A0 34A8 
08AA   34CF 34A9 34FB 01359         dt      D'207', D'169', D'251', D'170', D'35', D'172', D'71', D'173'
       34AA 3423 34AC 
       3447 34AD 
08B2   3468 34AE 3486 01360         dt      D'104', D'174', D'134', D'175', D'160', D'176', D'183', D'177'
       34AF 34A0 34B0 
       34B7 34B1 
08BA   34CB 34B2 34DB 01361         dt      D'203', D'178', D'219', D'179', D'232', D'180', D'242', D'181'
       34B3 34E8 34B4 
       34F2 34B5 
                      01362 
08C2   34F9 34B6 34FD 01363         dt      D'249', D'182', D'253', D'183', D'254', D'184', D'251', D'185'
       34B7 34FE 34B8 
       34FB 34B9 
08CA   34F6 34BA 34EE 01364         dt      D'246', D'186', D'238', D'187', D'226', D'188', D'212', D'189'
       34BB 34E2 34BC 
       34D4 34BD 
08D2   34C3 34BE 34AF 01365         dt      D'195', D'190', D'175', D'191', D'153', D'192', D'127', D'193'
       34BF 3499 34C0 
MPASM 5.73              NEWPIC_8B_SIMPLE.ASM   4-26-2018  8:17:38         PAGE 34
Voltage-Controlled VCADSR

LOC  OBJECT CODE     LINE SOURCE TEXT
  VALUE

       347F 34C1 
08DA   3463 34C2 3444 01366         dt      D'99', D'194', D'68', D'195', D'35', D'196', D'255', D'196'
       34C3 3423 34C4 
       34FF 34C4 
08E2   34D8 34C5 34AF 01367         dt      D'216', D'197', D'175', D'198', D'131', D'199', D'85', D'200'
       34C6 3483 34C7 
       3455 34C8 
08EA   3424 34C9 34F1 01368         dt      D'36', D'201', D'241', D'201', D'187', D'202', D'131', D'203'
       34C9 34BB 34CA 
       3483 34CB 
08F2   3449 34CC 340C 01369         dt      D'73', D'204', D'12', D'205', D'205', D'205', D'139', D'206'
       34CD 34CD 34CD 
       348B 34CE 
08FA   3448 34CF 3402 01370         dt      D'72', D'207', D'2', D'208', D'186', D'208', D'112', D'209'
       34D0 34BA 34D0 
       3470 34D1 
                      01371 
0902   3423 34D2 34D5 01372         dt      D'35', D'210', D'213', D'210', D'132', D'211', D'50', D'212'
       34D2 3484 34D3 
       3432 34D4 
090A   34DD 34D4 3486 01373         dt      D'221', D'212', D'134', D'213', D'46', D'214', D'211', D'214'
       34D5 342E 34D6 
       34D3 34D6 
0912   3476 34D7 3418 01374         dt      D'118', D'215', D'24', D'216', D'183', D'216', D'85', D'217'
       34D8 34B7 34D8 
       3455 34D9 
091A   34F0 34D9 348A 01375         dt      D'240', D'217', D'138', D'218', D'34', D'219', D'185', D'219'
       34DA 3422 34DB 
       34B9 34DB 
0922   344D 34DC 34E0 01376         dt      D'77', D'220', D'224', D'220', D'113', D'221', D'0', D'222'
       34DC 3471 34DD 
       3400 34DE 
092A   348E 34DE 341A 01377         dt      D'142', D'222', D'26', D'223', D'164', D'223', D'45', D'224'
       34DF 34A4 34DF 
       342D 34E0 
0932   34B4 34E0 3439 01378         dt      D'180', D'224', D'57', D'225', D'189', D'225', D'64', D'226'
       34E1 34BD 34E1 
       3440 34E2 
093A   34C0 34E2 3440 01379         dt      D'192', D'226', D'64', D'227', D'189', D'227', D'58', D'228'
       34E3 34BD 34E3 
       343A 34E4 
                      01380 
0942   34B4 34E4 342E 01381         dt      D'180', D'228', D'46', D'229', D'166', D'229', D'28', D'230'
       34E5 34A6 34E5 
       341C 34E6 
094A   3491 34E6 3405 01382         dt      D'145', D'230', D'5', D'231', D'119', D'231', D'232', D'231'
       34E7 3477 34E7 
       34E8 34E7 
0952   3458 34E8 34C6 01383         dt      D'88', D'232', D'198', D'232', D'51', D'233', D'159', D'233'
       34E8 3433 34E9 
       349F 34E9 
095A   3409 34EA 3473 01384         dt      D'9', D'234', D'115', D'234', D'218', D'234', D'65', D'235'
       34EA 34DA 34EA 
MPASM 5.73              NEWPIC_8B_SIMPLE.ASM   4-26-2018  8:17:38         PAGE 35
Voltage-Controlled VCADSR

LOC  OBJECT CODE     LINE SOURCE TEXT
  VALUE

       3441 34EB 
0962   34A7 34EB 340B 01385         dt      D'167', D'235', D'11', D'236', D'110', D'236', D'208', D'236'
       34EC 346E 34EC 
       34D0 34EC 
096A   3431 34ED 3491 01386         dt      D'49', D'237', D'145', D'237', D'239', D'237', D'76', D'238'
       34ED 34EF 34ED 
       344C 34EE 
0972   34A9 34EE 3404 01387         dt      D'169', D'238', D'4', D'239', D'94', D'239', D'183', D'239'
       34EF 345E 34EF 
       34B7 34EF 
097A   340F 34F0 3466 01388         dt      D'15', D'240', D'102', D'240', D'188', D'240', D'17', D'241'
       34F0 34BC 34F0 
       3411 34F1 
                      01389 
0982   3465 34F1 34B8 01390         dt      D'101', D'241', D'184', D'241', D'10', D'242', D'91', D'242'
       34F1 340A 34F2 
       345B 34F2 
098A   34AB 34F2 34FA 01391         dt      D'171', D'242', D'250', D'242', D'72', D'243', D'149', D'243'
       34F2 3448 34F3 
       3495 34F3 
0992   34E2 34F3 342D 01392         dt      D'226', D'243', D'45', D'244', D'119', D'244', D'193', D'244'
       34F4 3477 34F4 
       34C1 34F4 
099A   340A 34F5 3452 01393         dt      D'10', D'245', D'82', D'245', D'153', D'245', D'223', D'245'
       34F5 3499 34F5 
       34DF 34F5 
09A2   3424 34F6 3469 01394         dt      D'36', D'246', D'105', D'246', D'173', D'246', D'240', D'246'
       34F6 34AD 34F6 
       34F0 34F6 
09AA   3432 34F7 3473 01395         dt      D'50', D'247', D'115', D'247', D'180', D'247', D'244', D'247'
       34F7 34B4 34F7 
       34F4 34F7 
09B2   3433 34F8 3471 01396         dt      D'51', D'248', D'113', D'248', D'175', D'248', D'236', D'248'
       34F8 34AF 34F8 
       34EC 34F8 
09BA   3428 34F9 3463 01397         dt      D'40', D'249', D'99', D'249', D'158', D'249', D'216', D'249'
       34F9 349E 34F9 
       34D8 34F9 
                      01398 
09C2   3411 34FA 344A 01399         dt      D'17', D'250', D'74', D'250', D'130', D'250', D'185', D'250'
       34FA 3482 34FA 
       34B9 34FA 
09CA   34F0 34FA 3426 01400         dt      D'240', D'250', D'38', D'251', D'91', D'251', D'144', D'251'
       34FB 345B 34FB 
       3490 34FB 
09D2   34C4 34FB 34F8 01401         dt      D'196', D'251', D'248', D'251', D'43', D'252', D'93', D'252'
       34FB 342B 34FC 
       345D 34FC 
09DA   348F 34FC 34C0 01402         dt      D'143', D'252', D'192', D'252', D'241', D'252', D'33', D'253'
       34FC 34F1 34FC 
       3421 34FD 
09E2   3450 34FD 347F 01403         dt      D'80', D'253', D'127', D'253', D'173', D'253', D'219', D'253'
       34FD 34AD 34FD 
MPASM 5.73              NEWPIC_8B_SIMPLE.ASM   4-26-2018  8:17:38         PAGE 36
Voltage-Controlled VCADSR

LOC  OBJECT CODE     LINE SOURCE TEXT
  VALUE

       34DB 34FD 
09EA   3408 34FE 3435 01404         dt      D'8', D'254', D'53', D'254', D'97', D'254', D'141', D'254'
       34FE 3461 34FE 
       348D 34FE 
09F2   34B8 34FE 34E2 01405         dt      D'184', D'254', D'226', D'254', D'12', D'255', D'54', D'255'
       34FE 340C 34FF 
       3436 34FF 
09FA   345F 34FF 3488 01406         dt      D'95', D'255', D'136', D'255', D'176', D'255', D'216', D'255'
       34FF 34B0 34FF 
       34D8 34FF 
                      01407         ; One extra to make interp simple
0A02   34FF 34FF      01408         dt      D'255', D'255'
                      01409 
                      01410 ; We never reach here
0984 1FFF             01411         end 
MPASM 5.73              NEWPIC_8B_SIMPLE.ASM   4-26-2018  8:17:38         PAGE 37
Voltage-Controlled VCADSR

SYMBOL TABLE
  LABEL                             VALUE 

ABDEN                             00000000
ABDOVF                            00000007
ACKDT                             00000005
ACKEN                             00000004
ACKSTAT                           00000006
ACKTIM                            00000007
ADCON0                            0000009D
ADCON1                            0000009E
ADCON2                            0000009F
ADC_CHANNEL                       00000072
ADC_VALUE                         00000073
ADD0                              00000000
ADD1                              00000001
ADD2                              00000002
ADD3                              00000003
ADD4                              00000004
ADD5                              00000005
ADD6                              00000006
ADD7                              00000007
ADDEN                             00000003
ADFM                              00000007
ADGO                              00000001
ADIE                              00000006
ADIF                              00000006
ADNREF                            00000002
ADON                              00000000
ADPREF0                           00000000
ADPREF1                           00000001
ADRES                             0000009B
ADRESH                            0000009C
ADRESL                            0000009B
AHEN                              00000001
ANSA0                             00000000
ANSA1                             00000001
ANSA2                             00000002
ANSA4                             00000004
ANSC0                             00000000
ANSC1                             00000001
ANSC2                             00000002
ANSC3                             00000003
ANSELA                            0000018C
ANSELC                            0000018E
ARSEN                             00000006
AS0E                              00000000
AS1E                              00000001
AS2E                              00000002
AS3E                              00000003
AS4E                              00000004
AS5E                              00000005
AS6E                              00000006
AS7E                              00000007
ASDAC0                            00000002
ASDAC1                            00000003
MPASM 5.73              NEWPIC_8B_SIMPLE.ASM   4-26-2018  8:17:38         PAGE 38
Voltage-Controlled VCADSR

SYMBOL TABLE
  LABEL                             VALUE 

ASDBD0                            00000004
ASDBD1                            00000005
ASE                               00000007
ASREN                             00000006
ATTACK_CV                         0000002B
ATTACK_INC_HI                     0000003A
ATTACK_INC_LO                     00000038
ATTACK_INC_MID                    00000039
Attack                            00000081
AttackCV                          000001D8
AttackCurve                       00000600
AttackScaling                     00000094
BAUD1CON                          0000019F
BAUDCON                           0000019F
BAUDCON1                          0000019F
BAUDCTL                           0000019F
BAUDCTL1                          0000019F
BCL1IE                            00000003
BCL1IF                            00000003
BF                                00000000
BIT                               00000000
BLKF0                             00000000
BLKF1                             00000001
BLKF2                             00000002
BLKF3                             00000003
BLKF4                             00000004
BLKF5                             00000005
BLKR0                             00000000
BLKR1                             00000001
BLKR2                             00000002
BLKR3                             00000003
BLKR4                             00000004
BLKR5                             00000005
BOEN                              00000004
BORCON                            0000021D
BORFS                             00000006
BORRDY                            00000000
BORROW                            STATUS,C
BRG16                             00000003
BRGH                              00000002
BSR                               00000008
BSR0                              00000000
BSR1                              00000001
BSR2                              00000002
BSR3                              00000003
BSR4                              00000004
BSR_SHAD                          00000FE6
BUF0                              00000000
BUF1                              00000001
BUF2                              00000002
BUF3                              00000003
BUF4                              00000004
BUF5                              00000005
MPASM 5.73              NEWPIC_8B_SIMPLE.ASM   4-26-2018  8:17:38         PAGE 39
Voltage-Controlled VCADSR

SYMBOL TABLE
  LABEL                             VALUE 

BUF6                              00000006
BUF7                              00000007
C                                 00000000
C1HYS                             00000001
C1IE                              00000005
C1IF                              00000005
C1INTN                            00000000
C1INTP                            00000001
C1NCH0                            00000000
C1NCH1                            00000001
C1NCH2                            00000002
C1ON                              00000007
C1OUT                             00000006
C1PCH0                            00000000
C1PCH1                            00000001
C1PCH2                            00000002
C1PCH3                            00000003
C1POL                             00000004
C1SP                              00000002
C1SYNC                            00000000
C1TSEL0                           00000000
C1TSEL1                           00000001
C1ZLF                             00000003
C2HYS                             00000001
C2IE                              00000006
C2IF                              00000006
C2INTN                            00000000
C2INTP                            00000001
C2NCH0                            00000000
C2NCH1                            00000001
C2NCH2                            00000002
C2ON                              00000007
C2OUT                             00000006
C2PCH0                            00000000
C2PCH1                            00000001
C2PCH2                            00000002
C2PCH3                            00000003
C2POL                             00000004
C2SP                              00000002
C2SYNC                            00000000
C2ZLF                             00000003
CARRY                             STATUS,C
CCP1CAP                           00000294
CCP1CON                           00000293
CCP1CTS0                          00000000
CCP1CTS1                          00000001
CCP1CTS2                          00000002
CCP1EN                            00000007
CCP1FMT                           00000004
CCP1IE                            00000002
CCP1IF                            00000002
CCP1MODE0                         00000000
CCP1MODE1                         00000001
MPASM 5.73              NEWPIC_8B_SIMPLE.ASM   4-26-2018  8:17:38         PAGE 40
Voltage-Controlled VCADSR

SYMBOL TABLE
  LABEL                             VALUE 

CCP1MODE2                         00000002
CCP1MODE3                         00000003
CCP1OUT                           00000005
CCP1PPS                           00000E14
CCPIE                             00000002
CCPIF                             00000002
CCPR1                             00000291
CCPR1H                            00000292
CCPR1L                            00000291
CCPTMRS                           0000029E
CFGS                              00000006
CH0                               00000000
CH1                               00000001
CH2                               00000002
CH3                               00000003
CHANGES                           00000034
CHPOL                             00000005
CHS0                              00000002
CHS1                              00000003
CHS2                              00000004
CHS3                              00000005
CHS4                              00000006
CHSYNC                            00000004
CKE                               00000006
CKP                               00000004
CKPOL                             00000006
CKPPS                             00000E25
CKPS0                             00000004
CKPS1                             00000005
CKPS2                             00000006
CKSYNC                            00000005
CL0                               00000000
CL1                               00000001
CL2                               00000002
CL3                               00000003
CLC1CON                           00000F10
CLC1GLS0                          00000F16
CLC1GLS1                          00000F17
CLC1GLS2                          00000F18
CLC1GLS3                          00000F19
CLC1IE                            00000000
CLC1IF                            00000000
CLC1POL                           00000F11
CLC1SEL0                          00000F12
CLC1SEL1                          00000F13
CLC1SEL2                          00000F14
CLC1SEL3                          00000F15
CLC2CON                           00000F1A
CLC2GLS0                          00000F20
CLC2GLS1                          00000F21
CLC2GLS2                          00000F22
CLC2GLS3                          00000F23
CLC2IE                            00000001
MPASM 5.73              NEWPIC_8B_SIMPLE.ASM   4-26-2018  8:17:38         PAGE 41
Voltage-Controlled VCADSR

SYMBOL TABLE
  LABEL                             VALUE 

CLC2IF                            00000001
CLC2POL                           00000F1B
CLC2SEL0                          00000F1C
CLC2SEL1                          00000F1D
CLC2SEL2                          00000F1E
CLC2SEL3                          00000F1F
CLC3CON                           00000F24
CLC3GLS0                          00000F2A
CLC3GLS1                          00000F2B
CLC3GLS2                          00000F2C
CLC3GLS3                          00000F2D
CLC3IE                            00000002
CLC3IF                            00000002
CLC3POL                           00000F25
CLC3SEL0                          00000F26
CLC3SEL1                          00000F27
CLC3SEL2                          00000F28
CLC3SEL3                          00000F29
CLCDATA                           00000F0F
CLCIN0PPS                         00000E28
CLCIN1PPS                         00000E29
CLCIN2PPS                         00000E2A
CLCIN3PPS                         00000E2B
CLPOL                             00000001
CLSYNC                            00000000
CM1CON0                           00000110
CM1CON1                           00000111
CM1NSEL                           00000112
CM1PSEL                           00000113
CM2CON0                           00000114
CM2CON1                           00000115
CM2NSEL                           00000116
CM2PSEL                           00000117
CMOUT                             0000010F
COG1ASD0                          0000069D
COG1ASD1                          0000069E
COG1BLKF                          00000690
COG1BLKR                          0000068F
COG1CON0                          00000693
COG1CON1                          00000694
COG1DBF                           00000692
COG1DBR                           00000691
COG1FIS0                          00000699
COG1FIS1                          0000069A
COG1FSIM0                         0000069B
COG1FSIM1                         0000069C
COG1IF                            00000005
COG1INPPS                         00000E16
COG1PHF                           0000068E
COG1PHR                           0000068D
COG1RIS0                          00000695
COG1RIS1                          00000696
COG1RSIM0                         00000697
MPASM 5.73              NEWPIC_8B_SIMPLE.ASM   4-26-2018  8:17:38         PAGE 42
Voltage-Controlled VCADSR

SYMBOL TABLE
  LABEL                             VALUE 

COG1RSIM1                         00000698
COG1STR                           0000069F
COGIE                             00000005
CREN                              00000004
CS0_COG1CON0                      00000003
CS0_PWM5CLKCON                    00000000
CS0_T1CON                         00000006
CS0_T2CLKCON                      00000000
CS0_T3CON                         00000006
CS0_T4CLKCON                      00000000
CS0_T5CON                         00000006
CS0_T6CLKCON                      00000000
CS1_COG1CON0                      00000004
CS1_PWM5CLKCON                    00000001
CS1_T1CON                         00000007
CS1_T2CLKCON                      00000001
CS1_T3CON                         00000007
CS1_T4CLKCON                      00000001
CS1_T5CON                         00000007
CS1_T6CLKCON                      00000001
CS2                               00000002
CS3                               00000003
CSRC                              00000007
CTS0                              00000000
CTS1                              00000001
CTS2                              00000002
CURVE_OUT_HI                      00000024
CURVE_OUT_LO                      00000025
C_SHAD                            00000000
ControlLookupHi                   00000300
ControlLookupLo                   00000500
ControlLookupMid                  00000400
D1N                               00000000
D1S0                              00000000
D1S1                              00000001
D1S2                              00000002
D1S3                              00000003
D1S4                              00000004
D1T                               00000001
D2N                               00000002
D2S0                              00000000
D2S1                              00000001
D2S2                              00000002
D2S3                              00000003
D2S4                              00000004
D2T                               00000003
D3N                               00000004
D3S0                              00000000
D3S1                              00000001
D3S2                              00000002
D3S3                              00000003
D3S4                              00000004
D3T                               00000005
MPASM 5.73              NEWPIC_8B_SIMPLE.ASM   4-26-2018  8:17:38         PAGE 43
Voltage-Controlled VCADSR

SYMBOL TABLE
  LABEL                             VALUE 

D4N                               00000006
D4S0                              00000000
D4S1                              00000001
D4S2                              00000002
D4S3                              00000003
D4S4                              00000004
D4T                               00000007
DAC1CON0                          00000591
DAC1CON1                          00000592
DAC1CON2                          00000593
DAC1EN                            00000007
DAC1FM                            00000006
DAC1LD                            00000000
DAC1NSS0                          00000000
DAC1OE1                           00000005
DAC1PSS0                          00000002
DAC1PSS1                          00000003
DAC1R0                            00000000
DAC1R1                            00000001
DAC1R10                           00000002
DAC1R11                           00000003
DAC1R12                           00000004
DAC1R13                           00000005
DAC1R14                           00000006
DAC1R15                           00000007
DAC1R2                            00000002
DAC1R3                            00000003
DAC1R4                            00000004
DAC1R5                            00000005
DAC1R6                            00000006
DAC1R7                            00000007
DAC1R8                            00000000
DAC1R9                            00000001
DAC1REF                           00000592
DAC1REF0                          00000000
DAC1REF1                          00000001
DAC1REF10                         00000002
DAC1REF11                         00000003
DAC1REF12                         00000004
DAC1REF13                         00000005
DAC1REF14                         00000006
DAC1REF15                         00000007
DAC1REF2                          00000002
DAC1REF3                          00000003
DAC1REF4                          00000004
DAC1REF5                          00000005
DAC1REF6                          00000006
DAC1REF7                          00000007
DAC1REF8                          00000000
DAC1REF9                          00000001
DAC1REFH                          00000593
DAC1REFL                          00000592
DAC3CON0                          00000597
MPASM 5.73              NEWPIC_8B_SIMPLE.ASM   4-26-2018  8:17:38         PAGE 44
Voltage-Controlled VCADSR

SYMBOL TABLE
  LABEL                             VALUE 

DAC3CON1                          00000598
DAC3EN                            00000007
DAC3NSS                           00000000
DAC3OE1                           00000005
DAC3PSS0                          00000002
DAC3PSS1                          00000003
DAC3R0                            00000000
DAC3R1                            00000001
DAC3R2                            00000002
DAC3R3                            00000003
DAC3R4                            00000004
DAC3REF                           00000598
DAC3REF0                          00000000
DAC3REF1                          00000001
DAC3REF2                          00000002
DAC3REF3                          00000003
DAC3REF4                          00000004
DAC3REF5                          00000005
DACEN                             00000007
DACFM                             00000006
DACLD                             00000590
DACNSS                            00000000
DACNSS0                           00000000
DACOE                             00000005
DACOE1                            00000005
DACOutput                         000000D8
DACPSS0                           00000002
DACPSS1                           00000003
DACR0                             00000000
DACR1                             00000001
DACR2                             00000002
DACR3                             00000003
DACR4                             00000004
DBF0                              00000000
DBF1                              00000001
DBF2                              00000002
DBF3                              00000003
DBF4                              00000004
DBF5                              00000005
DBR0                              00000000
DBR1                              00000001
DBR2                              00000002
DBR3                              00000003
DBR4                              00000004
DBR5                              00000005
DC                                00000001
DC0                               00000006
DC1                               00000007
DC2                               00000000
DC3                               00000001
DC4                               00000002
DC5                               00000003
DC6                               00000004
MPASM 5.73              NEWPIC_8B_SIMPLE.ASM   4-26-2018  8:17:38         PAGE 45
Voltage-Controlled VCADSR

SYMBOL TABLE
  LABEL                             VALUE 

DC7                               00000005
DC8                               00000006
DC9                               00000007
DCIE                              00000001
DCIF                              00000001
DC_SHAD                           00000001
DEBOUNCE_HI                       00000031
DEBOUNCE_LO                       00000032
DECAY_CV                          0000002C
DECAY_INC_HI                      00000040
DECAY_INC_LO                      0000003E
DECAY_INC_MID                     0000003F
DHEN                              00000000
D_NOT_A                           00000005
Decay                             000000A0
DecayCV                           000001EB
DecayCurve                        00000802
DecayScaling                      000000B2
DoADConversion                    00000166
EN                                00000007
ENV_OUT_HI                        DAC1REFH
ENV_OUT_LO                        DAC1REFL
EndEnvelope                       00000029
ExponentialAttack                 0000008B
ExponentialDecay                  000000A9
ExponentialRelease                000000C6
F                                 00000001
FDBS                              00000006
FEDG                              00000005
FERR                              00000002
FIS0                              00000000
FIS1                              00000001
FIS10                             00000002
FIS11                             00000003
FIS12                             00000004
FIS13                             00000005
FIS14                             00000006
FIS2                              00000002
FIS3                              00000003
FIS4                              00000004
FIS5                              00000005
FIS6                              00000006
FIS7                              00000007
FIS8                              00000000
FIS9                              00000001
FLAGS                             00000071
FM                                00000006
FMT                               00000004
FPOL                              00000001
FREE                              00000004
FSIM0                             00000000
FSIM1                             00000001
FSIM10                            00000002
MPASM 5.73              NEWPIC_8B_SIMPLE.ASM   4-26-2018  8:17:38         PAGE 46
Voltage-Controlled VCADSR

SYMBOL TABLE
  LABEL                             VALUE 

FSIM11                            00000003
FSIM12                            00000004
FSIM13                            00000005
FSIM14                            00000006
FSIM2                             00000002
FSIM3                             00000003
FSIM4                             00000004
FSIM5                             00000005
FSIM6                             00000006
FSIM7                             00000007
FSIM8                             00000000
FSIM9                             00000001
FSR0                              00000004
FSR0H                             00000005
FSR0H_SHAD                        00000FE9
FSR0L                             00000004
FSR0L_SHAD                        00000FE8
FSR1                              00000006
FSR1H                             00000007
FSR1H_SHAD                        00000FEB
FSR1L                             00000006
FSR1L_SHAD                        00000FEA
FTSS0                             00000000
FTSS1                             00000001
FTSS2                             00000002
FTSS3                             00000003
FVRCON                            0000021E
FVREN                             00000007
FVRRDY                            00000006
G1ARSEN                           00000006
G1AS0E                            00000000
G1AS1E                            00000001
G1AS2E                            00000002
G1AS3E                            00000003
G1AS4E                            00000004
G1AS5E                            00000005
G1AS6E                            00000006
G1AS7E                            00000007
G1ASDAC0                          00000002
G1ASDAC1                          00000003
G1ASDBD0                          00000004
G1ASDBD1                          00000005
G1ASE                             00000007
G1ASREN                           00000006
G1BLKF0                           00000000
G1BLKF1                           00000001
G1BLKF2                           00000002
G1BLKF3                           00000003
G1BLKF4                           00000004
G1BLKF5                           00000005
G1BLKR0                           00000000
G1BLKR1                           00000001
G1BLKR2                           00000002
MPASM 5.73              NEWPIC_8B_SIMPLE.ASM   4-26-2018  8:17:38         PAGE 47
Voltage-Controlled VCADSR

SYMBOL TABLE
  LABEL                             VALUE 

G1BLKR3                           00000003
G1BLKR4                           00000004
G1BLKR5                           00000005
G1CS0                             00000003
G1CS1                             00000004
G1DBF0                            00000000
G1DBF1                            00000001
G1DBF2                            00000002
G1DBF3                            00000003
G1DBF4                            00000004
G1DBF5                            00000005
G1DBR0                            00000000
G1DBR1                            00000001
G1DBR2                            00000002
G1DBR3                            00000003
G1DBR4                            00000004
G1DBR5                            00000005
G1EN                              00000007
G1FDBS                            00000006
G1FIS0                            00000000
G1FIS1                            00000001
G1FIS10                           00000002
G1FIS11                           00000003
G1FIS12                           00000004
G1FIS13                           00000005
G1FIS14                           00000006
G1FIS2                            00000002
G1FIS3                            00000003
G1FIS4                            00000004
G1FIS5                            00000005
G1FIS6                            00000006
G1FIS7                            00000007
G1FIS8                            00000000
G1FIS9                            00000001
G1FSIM0                           00000000
G1FSIM1                           00000001
G1FSIM10                          00000002
G1FSIM11                          00000003
G1FSIM12                          00000004
G1FSIM13                          00000005
G1FSIM14                          00000006
G1FSIM2                           00000002
G1FSIM3                           00000003
G1FSIM4                           00000004
G1FSIM5                           00000005
G1FSIM6                           00000006
G1FSIM7                           00000007
G1FSIM8                           00000000
G1FSIM9                           00000001
G1LD                              00000006
G1MD0                             00000000
G1MD1                             00000001
G1MD2                             00000002
MPASM 5.73              NEWPIC_8B_SIMPLE.ASM   4-26-2018  8:17:38         PAGE 48
Voltage-Controlled VCADSR

SYMBOL TABLE
  LABEL                             VALUE 

G1PHF0                            00000000
G1PHF1                            00000001
G1PHF2                            00000002
G1PHF3                            00000003
G1PHF4                            00000004
G1PHF5                            00000005
G1PHR0                            00000000
G1PHR1                            00000001
G1PHR2                            00000002
G1PHR3                            00000003
G1PHR4                            00000004
G1PHR5                            00000005
G1POL                             00000000
G1POLA                            00000000
G1POLB                            00000001
G1POLC                            00000002
G1POLD                            00000003
G1RDBS                            00000007
G1RIS0                            00000000
G1RIS1                            00000001
G1RIS10                           00000002
G1RIS11                           00000003
G1RIS12                           00000004
G1RIS13                           00000005
G1RIS14                           00000006
G1RIS2                            00000002
G1RIS3                            00000003
G1RIS4                            00000004
G1RIS5                            00000005
G1RIS6                            00000006
G1RIS7                            00000007
G1RIS8                            00000000
G1RIS9                            00000001
G1RSIM0                           00000000
G1RSIM1                           00000001
G1RSIM10                          00000002
G1RSIM11                          00000003
G1RSIM12                          00000004
G1RSIM13                          00000005
G1RSIM14                          00000006
G1RSIM2                           00000002
G1RSIM3                           00000003
G1RSIM4                           00000004
G1RSIM5                           00000005
G1RSIM6                           00000006
G1RSIM7                           00000007
G1RSIM8                           00000000
G1RSIM9                           00000001
G1SDATA                           00000004
G1SDATB                           00000005
G1SDATC                           00000006
G1SDATD                           00000007
G1STRA                            00000000
MPASM 5.73              NEWPIC_8B_SIMPLE.ASM   4-26-2018  8:17:38         PAGE 49
Voltage-Controlled VCADSR

SYMBOL TABLE
  LABEL                             VALUE 

G1STRB                            00000001
G1STRC                            00000002
G1STRD                            00000003
G2POL                             00000001
G3POL                             00000002
G4D1N                             00000000
G4D1T                             00000001
G4D2N                             00000002
G4D2T                             00000003
G4D3N                             00000004
G4D3T                             00000005
G4D4N                             00000006
G4D4T                             00000007
G4POL                             00000003
GATE                              STATES, 5
GATE_CHANGED                      CHANGES, 5
GCEN                              00000007
GE                                00000007
GGO_NOT_DONE                      00000003
GIE                               00000007
GO_ADCON0                         00000001
GO_NOT_DONE                       00000001
GO_PRG1CON0                       00000000
GPOL                              00000006
GSPM                              00000004
GSS0                              00000000
GSS1                              00000001
GTM                               00000005
GVAL                              00000002
GenerateEnvelope                  00000032
GetAttackOffset                   0000003A
GetDecayOffset                    0000003E
GetPunchOffset                    0000003C
GetReleaseOffset                  00000040
HFIOFL                            00000003
HFIOFR                            00000004
HFIOFS                            00000000
HIDC4                             00000004
HIDC5                             00000005
HIDRVC                            0000040E
HYS                               00000001
INDF0                             00000000
INDF1                             00000001
INLVLA                            0000038C
INLVLA0                           00000000
INLVLA1                           00000001
INLVLA2                           00000002
INLVLA3                           00000003
INLVLA4                           00000004
INLVLA5                           00000005
INLVLC                            0000038E
INLVLC0                           00000000
INLVLC1                           00000001
MPASM 5.73              NEWPIC_8B_SIMPLE.ASM   4-26-2018  8:17:38         PAGE 50
Voltage-Controlled VCADSR

SYMBOL TABLE
  LABEL                             VALUE 

INLVLC2                           00000002
INLVLC3                           00000003
INLVLC4                           00000004
INLVLC5                           00000005
INPUT_X_HI                        00000020
INPUT_X_LO                        00000021
INPUT_Y_HI                        00000022
INPUT_Y_LO                        00000023
INS0                              00000000
INS1                              00000001
INS2                              00000002
INS3                              00000003
INTCON                            0000000B
INTE                              00000004
INTEDG                            00000006
INTF                              00000001
INTN_CLC1CON                      00000003
INTN_CLC2CON                      00000003
INTN_CLC3CON                      00000003
INTN_CM1CON1                      00000000
INTN_CM2CON1                      00000000
INTPPS                            00000E10
INTP_CLC1CON                      00000004
INTP_CLC2CON                      00000004
INTP_CLC3CON                      00000004
INTP_CM1CON1                      00000001
INTP_CM2CON1                      00000001
IOCAF                             00000393
IOCAF0                            00000000
IOCAF1                            00000001
IOCAF2                            00000002
IOCAF3                            00000003
IOCAF4                            00000004
IOCAF5                            00000005
IOCAN                             00000392
IOCAN0                            00000000
IOCAN1                            00000001
IOCAN2                            00000002
IOCAN3                            00000003
IOCAN4                            00000004
IOCAN5                            00000005
IOCAP                             00000391
IOCAP0                            00000000
IOCAP1                            00000001
IOCAP2                            00000002
IOCAP3                            00000003
IOCAP4                            00000004
IOCAP5                            00000005
IOCCF                             00000399
IOCCF0                            00000000
IOCCF1                            00000001
IOCCF2                            00000002
IOCCF3                            00000003
MPASM 5.73              NEWPIC_8B_SIMPLE.ASM   4-26-2018  8:17:38         PAGE 51
Voltage-Controlled VCADSR

SYMBOL TABLE
  LABEL                             VALUE 

IOCCF4                            00000004
IOCCF5                            00000005
IOCCN                             00000398
IOCCN0                            00000000
IOCCN1                            00000001
IOCCN2                            00000002
IOCCN3                            00000003
IOCCN4                            00000004
IOCCN5                            00000005
IOCCP                             00000397
IOCCP0                            00000000
IOCCP1                            00000001
IOCCP2                            00000002
IOCCP3                            00000003
IOCCP4                            00000004
IOCCP5                            00000005
IOCIE                             00000003
IOCIF                             00000000
IRCF0                             00000003
IRCF1                             00000004
IRCF2                             00000005
IRCF3                             00000006
ISET0                             00000000
ISET1                             00000001
ISET2                             00000002
ISET3                             00000003
ISET4                             00000004
IncrementPhase                    00000041
InterruptEnter                    00000004
InterruptExit                     000000DF
LATA                              0000010C
LATA0                             00000000
LATA1                             00000001
LATA2                             00000002
LATA4                             00000004
LATA5                             00000005
LATC                              0000010E
LATC0                             00000000
LATC1                             00000001
LATC2                             00000002
LATC3                             00000003
LATC4                             00000004
LATC5                             00000005
LC1D1S0                           00000000
LC1D1S1                           00000001
LC1D1S2                           00000002
LC1D1S3                           00000003
LC1D1S4                           00000004
LC1D2S0                           00000000
LC1D2S1                           00000001
LC1D2S2                           00000002
LC1D2S3                           00000003
LC1D2S4                           00000004
MPASM 5.73              NEWPIC_8B_SIMPLE.ASM   4-26-2018  8:17:38         PAGE 52
Voltage-Controlled VCADSR

SYMBOL TABLE
  LABEL                             VALUE 

LC1D3S0                           00000000
LC1D3S1                           00000001
LC1D3S2                           00000002
LC1D3S3                           00000003
LC1D3S4                           00000004
LC1D4S0                           00000000
LC1D4S1                           00000001
LC1D4S2                           00000002
LC1D4S3                           00000003
LC1D4S4                           00000004
LC1EN                             00000007
LC1G1D1N                          00000000
LC1G1D1T                          00000001
LC1G1D2N                          00000002
LC1G1D2T                          00000003
LC1G1D3N                          00000004
LC1G1D3T                          00000005
LC1G1D4N                          00000006
LC1G1D4T                          00000007
LC1G1POL                          00000000
LC1G2D1N                          00000000
LC1G2D1T                          00000001
LC1G2D2N                          00000002
LC1G2D2T                          00000003
LC1G2D3N                          00000004
LC1G2D3T                          00000005
LC1G2D4N                          00000006
LC1G2D4T                          00000007
LC1G2POL                          00000001
LC1G3D1N                          00000000
LC1G3D1T                          00000001
LC1G3D2N                          00000002
LC1G3D2T                          00000003
LC1G3D3N                          00000004
LC1G3D3T                          00000005
LC1G3D4N                          00000006
LC1G3D4T                          00000007
LC1G3POL                          00000002
LC1G4D1N                          00000000
LC1G4D1T                          00000001
LC1G4D2N                          00000002
LC1G4D2T                          00000003
LC1G4D3N                          00000004
LC1G4D3T                          00000005
LC1G4D4N                          00000006
LC1G4D4T                          00000007
LC1G4POL                          00000003
LC1INTN                           00000003
LC1INTP                           00000004
LC1MODE0                          00000000
LC1MODE1                          00000001
LC1MODE2                          00000002
LC1OUT                            00000005
MPASM 5.73              NEWPIC_8B_SIMPLE.ASM   4-26-2018  8:17:38         PAGE 53
Voltage-Controlled VCADSR

SYMBOL TABLE
  LABEL                             VALUE 

LC1POL                            00000007
LC2D1S0                           00000000
LC2D1S1                           00000001
LC2D1S2                           00000002
LC2D1S3                           00000003
LC2D1S4                           00000004
LC2D2S0                           00000000
LC2D2S1                           00000001
LC2D2S2                           00000002
LC2D2S3                           00000003
LC2D2S4                           00000004
LC2D3S0                           00000000
LC2D3S1                           00000001
LC2D3S2                           00000002
LC2D3S3                           00000003
LC2D3S4                           00000004
LC2D4S0                           00000000
LC2D4S1                           00000001
LC2D4S2                           00000002
LC2D4S3                           00000003
LC2D4S4                           00000004
LC2EN                             00000007
LC2G1D1N                          00000000
LC2G1D1T                          00000001
LC2G1D2N                          00000002
LC2G1D2T                          00000003
LC2G1D3N                          00000004
LC2G1D3T                          00000005
LC2G1D4N                          00000006
LC2G1D4T                          00000007
LC2G1POL                          00000000
LC2G2D1N                          00000000
LC2G2D1T                          00000001
LC2G2D2N                          00000002
LC2G2D2T                          00000003
LC2G2D3N                          00000004
LC2G2D3T                          00000005
LC2G2D4N                          00000006
LC2G2D4T                          00000007
LC2G2POL                          00000001
LC2G3D1N                          00000000
LC2G3D1T                          00000001
LC2G3D2N                          00000002
LC2G3D2T                          00000003
LC2G3D3N                          00000004
LC2G3D3T                          00000005
LC2G3D4N                          00000006
LC2G3D4T                          00000007
LC2G3POL                          00000002
LC2G4D1N                          00000000
LC2G4D1T                          00000001
LC2G4D2N                          00000002
LC2G4D2T                          00000003
MPASM 5.73              NEWPIC_8B_SIMPLE.ASM   4-26-2018  8:17:38         PAGE 54
Voltage-Controlled VCADSR

SYMBOL TABLE
  LABEL                             VALUE 

LC2G4D3N                          00000004
LC2G4D3T                          00000005
LC2G4D4N                          00000006
LC2G4D4T                          00000007
LC2G4POL                          00000003
LC2INTN                           00000003
LC2INTP                           00000004
LC2MODE0                          00000000
LC2MODE1                          00000001
LC2MODE2                          00000002
LC2OUT                            00000005
LC2POL                            00000007
LC3D1S0                           00000000
LC3D1S1                           00000001
LC3D1S2                           00000002
LC3D1S3                           00000003
LC3D1S4                           00000004
LC3D2S0                           00000000
LC3D2S1                           00000001
LC3D2S2                           00000002
LC3D2S3                           00000003
LC3D2S4                           00000004
LC3D3S0                           00000000
LC3D3S1                           00000001
LC3D3S2                           00000002
LC3D3S3                           00000003
LC3D3S4                           00000004
LC3D4S0                           00000000
LC3D4S1                           00000001
LC3D4S2                           00000002
LC3D4S3                           00000003
LC3D4S4                           00000004
LC3EN                             00000007
LC3G1D1N                          00000000
LC3G1D1T                          00000001
LC3G1D2N                          00000002
LC3G1D2T                          00000003
LC3G1D3N                          00000004
LC3G1D3T                          00000005
LC3G1D4N                          00000006
LC3G1D4T                          00000007
LC3G1POL                          00000000
LC3G2D1N                          00000000
LC3G2D1T                          00000001
LC3G2D2N                          00000002
LC3G2D2T                          00000003
LC3G2D3N                          00000004
LC3G2D3T                          00000005
LC3G2D4N                          00000006
LC3G2D4T                          00000007
LC3G2POL                          00000001
LC3G3D1N                          00000000
LC3G3D1T                          00000001
MPASM 5.73              NEWPIC_8B_SIMPLE.ASM   4-26-2018  8:17:38         PAGE 55
Voltage-Controlled VCADSR

SYMBOL TABLE
  LABEL                             VALUE 

LC3G3D2N                          00000002
LC3G3D2T                          00000003
LC3G3D3N                          00000004
LC3G3D3T                          00000005
LC3G3D4N                          00000006
LC3G3D4T                          00000007
LC3G3POL                          00000002
LC3G4D1N                          00000000
LC3G4D1T                          00000001
LC3G4D2N                          00000002
LC3G4D2T                          00000003
LC3G4D3N                          00000004
LC3G4D3T                          00000005
LC3G4D4N                          00000006
LC3G4D4T                          00000007
LC3G4POL                          00000003
LC3INTN                           00000003
LC3INTP                           00000004
LC3MODE0                          00000000
LC3MODE1                          00000001
LC3MODE2                          00000002
LC3OUT                            00000005
LC3POL                            00000007
LD                                00000006
LDA                               00000007
LFIOFR                            00000001
LFO_MODE                          FLAGS, 0
LOOPING                           FLAGS, 1
LWLO                              00000005
LookupAndInterp                   0000013D
LoopToAttack                      0000006C
LoopingEnvelopeOrLFOMode          0000005A
MC1OUT                            00000000
MC2OUT                            00000001
MCLC1OUT                          00000000
MCLC2OUT                          00000001
MCLC3OUT                          00000002
MD0                               00000000
MD1                               00000001
MD1BIT                            00000000
MD1CARH                           0000039F
MD1CARL                           0000039E
MD1CH0                            00000000
MD1CH1                            00000001
MD1CH2                            00000002
MD1CH3                            00000003
MD1CHPOL                          00000005
MD1CHPPS                          00000E30
MD1CHSYNC                         00000004
MD1CL0                            00000000
MD1CL1                            00000001
MD1CL2                            00000002
MD1CL3                            00000003
MPASM 5.73              NEWPIC_8B_SIMPLE.ASM   4-26-2018  8:17:38         PAGE 56
Voltage-Controlled VCADSR

SYMBOL TABLE
  LABEL                             VALUE 

MD1CLPOL                          00000001
MD1CLPPS                          00000E31
MD1CLSYNC                         00000000
MD1CON0                           0000039B
MD1CON1                           0000039C
MD1EN                             00000007
MD1MODPPS                         00000E32
MD1MS0                            00000000
MD1MS1                            00000001
MD1MS2                            00000002
MD1MS3                            00000003
MD1MS4                            00000004
MD1OPOL                           00000004
MD1OUT                            00000005
MD1SRC                            0000039D
MD2                               00000002
MFIOFR                            00000002
MODE0_CCP1CON                     00000000
MODE0_CLC1CON                     00000000
MODE0_CLC2CON                     00000000
MODE0_CLC3CON                     00000000
MODE0_PRG1CON0                    00000002
MODE0_PWM5CON                     00000002
MODE0_T2HLT                       00000000
MODE0_T4HLT                       00000000
MODE0_T6HLT                       00000000
MODE1_CCP1CON                     00000001
MODE1_CLC1CON                     00000001
MODE1_CLC2CON                     00000001
MODE1_CLC3CON                     00000001
MODE1_PRG1CON0                    00000003
MODE1_PWM5CON                     00000003
MODE1_T2HLT                       00000001
MODE1_T4HLT                       00000001
MODE1_T6HLT                       00000001
MODE2                             00000002
MODE3                             00000003
MODE4                             00000004
MODE_CV                           00000030
MPWM5EN                           00000004
MPWM5LD                           00000004
MPWM5OUT                          00000004
MS0                               00000000
MS1                               00000001
MS2                               00000002
MS3                               00000003
MS4                               00000004
MSK0                              00000000
MSK1                              00000001
MSK2                              00000002
MSK3                              00000003
MSK4                              00000004
MSK5                              00000005
MPASM 5.73              NEWPIC_8B_SIMPLE.ASM   4-26-2018  8:17:38         PAGE 57
Voltage-Controlled VCADSR

SYMBOL TABLE
  LABEL                             VALUE 

MSK6                              00000006
MSK7                              00000007
MULT_IN_HI                        00000026
MULT_IN_LO                        00000027
MULT_OUT_HI                       00000028
MULT_OUT_LO                       00000029
Main                              00000173
MainLoop                          000001CB
ModeCV                            0000021A
MultBit0                          000000E2
MultBit1                          000000E9
MultBit2                          000000F2
MultBit3                          000000FB
MultBit4                          00000104
MultBit5                          0000010D
MultBit6                          00000116
MultBit7                          0000011F
MultBit8                          00000128
MultBit9                          00000131
MultEnd                           0000013A
Multiply10x10                     000000E0
NCH0                              00000000
NCH1                              00000001
NCH2                              00000002
NOT_BOR                           00000000
NOT_PD                            00000003
NOT_POR                           00000001
NOT_RI                            00000002
NOT_RMCLR                         00000003
NOT_RWDT                          00000004
NOT_SYNC                          00000002
NOT_T1SYNC                        00000002
NOT_T3SYNC                        00000002
NOT_T5SYNC                        00000002
NOT_TO                            00000004
NOT_WPUEN                         00000007
NSS                               00000000
NSS0                              00000000
NextStage                         0000004B
NormalEnvelope                    00000073
ODA0                              00000000
ODA1                              00000001
ODA2                              00000002
ODA4                              00000004
ODA5                              00000005
ODC0                              00000000
ODC1                              00000001
ODC2                              00000002
ODC3                              00000003
ODC4                              00000004
ODC5                              00000005
ODCONA                            0000028C
ODCONC                            0000028E
MPASM 5.73              NEWPIC_8B_SIMPLE.ASM   4-26-2018  8:17:38         PAGE 58
Voltage-Controlled VCADSR

SYMBOL TABLE
  LABEL                             VALUE 

OE                                00000005
OE1                               00000005
OERR                              00000001
OFIE                              00000003
OFIF                              00000003
OFO                               00000004
ON_CM1CON0                        00000007
ON_CM2CON0                        00000007
ON_T1CON                          00000000
ON_T2CON                          00000007
ON_T3CON                          00000000
ON_T4CON                          00000007
ON_T5CON                          00000000
ON_T6CON                          00000007
OPA1CON                           00000511
OPA1EN                            00000007
OPA1NCHS                          0000050F
OPA1ORM0                          00000000
OPA1ORM1                          00000001
OPA1ORPOL                         00000002
OPA1ORS                           00000512
OPA1PCHS                          00000510
OPA1UG                            00000004
OPOL                              00000004
OPTION_REG                        00000095
ORM0                              00000000
ORM1                              00000001
ORPOL                             00000002
OS                                00000001
OSCCON                            00000099
OSCEN                             00000003
OSCSTAT                           0000009A
OSCTUNE                           00000098
OSFIE                             00000007
OSFIF                             00000007
OSTS                              00000005
OUTPS0                            00000000
OUTPS1                            00000001
OUTPS2                            00000002
OUTPS3                            00000003
OUTPUT_HI                         00000076
OUTPUT_LO                         00000077
OUT_CCP1CON                       00000005
OUT_CLC1CON                       00000005
OUT_CLC2CON                       00000005
OUT_CLC3CON                       00000005
OUT_CM1CON0                       00000006
OUT_CM2CON0                       00000006
OUT_MD1CON0                       00000005
OUT_PWM3CON                       00000005
OUT_PWM5CON                       00000005
P                                 00000004
P3TSEL0                           00000004
MPASM 5.73              NEWPIC_8B_SIMPLE.ASM   4-26-2018  8:17:38         PAGE 59
Voltage-Controlled VCADSR

SYMBOL TABLE
  LABEL                             VALUE 

P3TSEL1                           00000005
PCH0                              00000000
PCH1                              00000001
PCH2                              00000002
PCH3                              00000003
PCIE                              00000006
PCL                               00000002
PCLATH                            0000000A
PCLATH_SHAD                       00000FE7
PCON                              00000096
PEIE                              00000006
PEN                               00000002
PHASE_HI                          00000035
PHASE_LO                          00000037
PHASE_MID                         00000036
PHF0                              00000000
PHF1                              00000001
PHF2                              00000002
PHF3                              00000003
PHF4                              00000004
PHF5                              00000005
PHIE                              00000002
PHIF                              00000002
PHR0                              00000000
PHR1                              00000001
PHR2                              00000002
PHR3                              00000003
PHR4                              00000004
PHR5                              00000005
PIE1                              00000091
PIE2                              00000092
PIE3                              00000093
PIE4                              00000094
PIR1                              00000011
PIR2                              00000012
PIR3                              00000013
PIR4                              00000014
PLLR                              00000006
PMADR                             00000191
PMADRH                            00000192
PMADRL                            00000191
PMCON1                            00000195
PMCON2                            00000196
PMDAT                             00000193
PMDATH                            00000194
PMDATL                            00000193
POLA                              00000000
POLB                              00000001
POLC                              00000002
POLD                              00000003
POL_CLC1POL                       00000007
POL_CLC2POL                       00000007
POL_CLC3POL                       00000007
MPASM 5.73              NEWPIC_8B_SIMPLE.ASM   4-26-2018  8:17:38         PAGE 60
Voltage-Controlled VCADSR

SYMBOL TABLE
  LABEL                             VALUE 

POL_CM1CON0                       00000004
POL_CM2CON0                       00000004
POL_PWM3CON                       00000004
POL_PWM5CON                       00000004
PORTA                             0000000C
PORTC                             0000000E
PPSLOCK                           00000E0F
PPSLOCKED                         00000000
PR2                               0000001B
PR4                               00000414
PR6                               0000041B
PRG1CON0                          00000797
PRG1CON1                          00000798
PRG1CON2                          00000799
PRG1FPPS                          00000E2D
PRG1FTSS                          00000795
PRG1INS                           00000796
PRG1RPPS                          00000E2C
PRG1RTSS                          00000794
PRIE                              00000000
PRIF                              00000000
PS0_OPTION_REG                    00000000
PS0_PWM5CLKCON                    00000004
PS1_OPTION_REG                    00000001
PS1_PWM5CLKCON                    00000005
PS2_OPTION_REG                    00000002
PS2_PWM5CLKCON                    00000006
PSA                               00000003
PSS0                              00000002
PSS1                              00000003
PSYNC                             00000007
PUNCH_INC_HI                      0000003D
PUNCH_INC_LO                      0000003B
PUNCH_INC_MID                     0000003C
PWM3CON                           00000619
PWM3DC0                           00000006
PWM3DC1                           00000007
PWM3DC2                           00000000
PWM3DC3                           00000001
PWM3DC4                           00000002
PWM3DC5                           00000003
PWM3DC6                           00000004
PWM3DC7                           00000005
PWM3DC8                           00000006
PWM3DC9                           00000007
PWM3DCH                           00000618
PWM3DCL                           00000617
PWM3EN                            00000007
PWM3OUT                           00000005
PWM3POL                           00000004
PWM5CLKCON                        00000D9E
PWM5CON                           00000D9B
PWM5CS0                           00000000
MPASM 5.73              NEWPIC_8B_SIMPLE.ASM   4-26-2018  8:17:38         PAGE 61
Voltage-Controlled VCADSR

SYMBOL TABLE
  LABEL                             VALUE 

PWM5CS1                           00000001
PWM5CS2                           00000002
PWM5DC                            00000D93
PWM5DCH                           00000D94
PWM5DCH0                          00000000
PWM5DCH1                          00000001
PWM5DCH2                          00000002
PWM5DCH3                          00000003
PWM5DCH4                          00000004
PWM5DCH5                          00000005
PWM5DCH6                          00000006
PWM5DCH7                          00000007
PWM5DCIE                          00000001
PWM5DCIF                          00000001
PWM5DCL                           00000D93
PWM5DCL0                          00000000
PWM5DCL1                          00000001
PWM5DCL2                          00000002
PWM5DCL3                          00000003
PWM5DCL4                          00000004
PWM5DCL5                          00000005
PWM5DCL6                          00000006
PWM5DCL7                          00000007
PWM5EN                            00000007
PWM5IE                            00000006
PWM5IF                            00000006
PWM5INTCON                        00000D9C
PWM5INTE                          00000D9C
PWM5INTF                          00000D9D
PWM5INTFLG                        00000D9D
PWM5LD                            00000007
PWM5LDCON                         00000D9F
PWM5MODE0                         00000002
PWM5MODE1                         00000003
PWM5OF                            00000D97
PWM5OFCON                         00000DA0
PWM5OFH                           00000D98
PWM5OFH0                          00000000
PWM5OFH1                          00000001
PWM5OFH2                          00000002
PWM5OFH3                          00000003
PWM5OFH4                          00000004
PWM5OFH5                          00000005
PWM5OFH6                          00000006
PWM5OFH7                          00000007
PWM5OFIE                          00000003
PWM5OFIF                          00000003
PWM5OFL                           00000D97
PWM5OFL0                          00000000
PWM5OFL1                          00000001
PWM5OFL2                          00000002
PWM5OFL3                          00000003
PWM5OFL4                          00000004
MPASM 5.73              NEWPIC_8B_SIMPLE.ASM   4-26-2018  8:17:38         PAGE 62
Voltage-Controlled VCADSR

SYMBOL TABLE
  LABEL                             VALUE 

PWM5OFL5                          00000005
PWM5OFL6                          00000006
PWM5OFL7                          00000007
PWM5OFMC                          00000004
PWM5OUT                           00000005
PWM5PH                            00000D91
PWM5PHH                           00000D92
PWM5PHH0                          00000000
PWM5PHH1                          00000001
PWM5PHH2                          00000002
PWM5PHH3                          00000003
PWM5PHH4                          00000004
PWM5PHH5                          00000005
PWM5PHH6                          00000006
PWM5PHH7                          00000007
PWM5PHIE                          00000002
PWM5PHIF                          00000002
PWM5PHL                           00000D91
PWM5PHL0                          00000000
PWM5PHL1                          00000001
PWM5PHL2                          00000002
PWM5PHL3                          00000003
PWM5PHL4                          00000004
PWM5PHL5                          00000005
PWM5PHL6                          00000006
PWM5PHL7                          00000007
PWM5POL                           00000004
PWM5PR                            00000D95
PWM5PRH                           00000D96
PWM5PRH0                          00000000
PWM5PRH1                          00000001
PWM5PRH2                          00000002
PWM5PRH3                          00000003
PWM5PRH4                          00000004
PWM5PRH5                          00000005
PWM5PRH6                          00000006
PWM5PRH7                          00000007
PWM5PRIE                          00000000
PWM5PRIF                          00000000
PWM5PRL                           00000D95
PWM5PRL0                          00000000
PWM5PRL1                          00000001
PWM5PRL2                          00000002
PWM5PRL3                          00000003
PWM5PRL4                          00000004
PWM5PRL5                          00000005
PWM5PRL6                          00000006
PWM5PRL7                          00000007
PWM5PS0                           00000004
PWM5PS1                           00000005
PWM5PS2                           00000006
PWM5TMR                           00000D99
PWM5TMRH                          00000D9A
MPASM 5.73              NEWPIC_8B_SIMPLE.ASM   4-26-2018  8:17:38         PAGE 63
Voltage-Controlled VCADSR

SYMBOL TABLE
  LABEL                             VALUE 

PWM5TMRH0                         00000000
PWM5TMRH1                         00000001
PWM5TMRH2                         00000002
PWM5TMRH3                         00000003
PWM5TMRH4                         00000004
PWM5TMRH5                         00000005
PWM5TMRH6                         00000006
PWM5TMRH7                         00000007
PWM5TMRL                          00000D99
PWM5TMRL0                         00000000
PWM5TMRL1                         00000001
PWM5TMRL2                         00000002
PWM5TMRL3                         00000003
PWM5TMRL4                         00000004
PWM5TMRL5                         00000005
PWM5TMRL6                         00000006
PWM5TMRL7                         00000007
PWMEN                             00000D8E
PWMLD                             00000D8F
PWMOUT                            00000D90
PWMPW0                            00000006
PWMPW1                            00000007
PWMPW2                            00000000
PWMPW3                            00000001
PWMPW4                            00000002
PWMPW5                            00000003
PWMPW6                            00000004
PWMPW7                            00000005
PWMPW8                            00000006
PWMPW9                            00000007
Punch                             0000009C
R0                                00000000
R1                                00000001
R10                               00000002
R11                               00000003
R12                               00000004
R13                               00000005
R14                               00000006
R15                               00000007
R2                                00000002
R3                                00000003
R4                                00000004
R5                                00000005
R6                                00000006
R7                                00000007
R8                                00000000
R9                                00000001
RA0                               00000000
RA0PPS                            00000E90
RA1                               00000001
RA1PPS                            00000E91
RA2                               00000002
RA2PPS                            00000E92
MPASM 5.73              NEWPIC_8B_SIMPLE.ASM   4-26-2018  8:17:38         PAGE 64
Voltage-Controlled VCADSR

SYMBOL TABLE
  LABEL                             VALUE 

RA3                               00000003
RA4                               00000004
RA4PPS                            00000E94
RA5                               00000005
RA5PPS                            00000E95
RC0                               00000000
RC0PPS                            00000EA0
RC1                               00000001
RC1PPS                            00000EA1
RC1REG                            00000199
RC1STA                            0000019D
RC2                               00000002
RC2PPS                            00000EA2
RC3                               00000003
RC3PPS                            00000EA3
RC4                               00000004
RC4PPS                            00000EA4
RC5                               00000005
RC5PPS                            00000EA5
RCEN                              00000003
RCIDL                             00000006
RCIE                              00000005
RCIF                              00000005
RCREG                             00000199
RCREG1                            00000199
RCSTA                             0000019D
RCSTA1                            0000019D
RD                                00000000
RDBS                              00000007
RDY                               00000002
REDG                              00000004
REF0                              00000000
REF1                              00000001
REF10                             00000002
REF11                             00000003
REF12                             00000004
REF13                             00000005
REF14                             00000006
REF15                             00000007
REF2                              00000002
REF3                              00000003
REF4                              00000004
REF5                              00000005
REF6                              00000006
REF7                              00000007
REF8                              00000000
REF9                              00000001
RELEASE_CV                        0000002E
RELEASE_INC_HI                    00000043
RELEASE_INC_LO                    00000041
RELEASE_INC_MID                   00000042
RG1EN                             00000007
RG1FEDG                           00000005
MPASM 5.73              NEWPIC_8B_SIMPLE.ASM   4-26-2018  8:17:38         PAGE 65
Voltage-Controlled VCADSR

SYMBOL TABLE
  LABEL                             VALUE 

RG1FPOL                           00000001
RG1FTSS0                          00000000
RG1FTSS1                          00000001
RG1FTSS2                          00000002
RG1FTSS3                          00000003
RG1GO                             00000000
RG1INS0                           00000000
RG1INS1                           00000001
RG1INS2                           00000002
RG1INS3                           00000003
RG1ISET0                          00000000
RG1ISET1                          00000001
RG1ISET2                          00000002
RG1ISET3                          00000003
RG1ISET4                          00000004
RG1MODE0                          00000002
RG1MODE1                          00000003
RG1OS                             00000001
RG1RDY                            00000002
RG1REDG                           00000004
RG1RPOL                           00000000
RG1RTSS0                          00000000
RG1RTSS1                          00000001
RG1RTSS2                          00000002
RG1RTSS3                          00000003
RIS0                              00000000
RIS1                              00000001
RIS10                             00000002
RIS11                             00000003
RIS12                             00000004
RIS13                             00000005
RIS14                             00000006
RIS2                              00000002
RIS3                              00000003
RIS4                              00000004
RIS5                              00000005
RIS6                              00000006
RIS7                              00000007
RIS8                              00000000
RIS9                              00000001
RPOL                              00000000
RSEL0                             00000000
RSEL1                             00000001
RSEL2                             00000002
RSEL3                             00000003
RSEN                              00000001
RSIM0                             00000000
RSIM1                             00000001
RSIM10                            00000002
RSIM11                            00000003
RSIM12                            00000004
RSIM13                            00000005
RSIM14                            00000006
MPASM 5.73              NEWPIC_8B_SIMPLE.ASM   4-26-2018  8:17:38         PAGE 66
Voltage-Controlled VCADSR

SYMBOL TABLE
  LABEL                             VALUE 

RSIM2                             00000002
RSIM3                             00000003
RSIM4                             00000004
RSIM5                             00000005
RSIM6                             00000006
RSIM7                             00000007
RSIM8                             00000000
RSIM9                             00000001
RTSS0                             00000000
RTSS1                             00000001
RTSS2                             00000002
RTSS3                             00000003
RX9                               00000006
RX9D                              00000000
RXPPS                             00000E24
R_NOT_W                           00000002
Release                           000000BC
ReleaseCV                         00000202
ReleaseScaling                    000000CF
Reserved_CM1CON0                  00000002
Reserved_CM2CON0                  00000002
Reserved_VREGCON                  00000000
S                                 00000003
SBCDE                             00000002
SBOREN                            00000007
SCIE                              00000005
SCKP                              00000004
SCS0                              00000000
SCS1                              00000001
SDAHT                             00000003
SDATA                             00000004
SDATB                             00000005
SDATC                             00000006
SDATD                             00000007
SEN                               00000000
SENDB                             00000003
SLRA0                             00000000
SLRA1                             00000001
SLRA2                             00000002
SLRA4                             00000004
SLRA5                             00000005
SLRC0                             00000000
SLRC1                             00000001
SLRC2                             00000002
SLRC3                             00000003
SLRC4                             00000004
SLRC5                             00000005
SLRCONA                           0000030C
SLRCONC                           0000030E
SMP                               00000007
SOSCEN                            00000003
SOSCR                             00000007
SP1BRG                            0000019B
MPASM 5.73              NEWPIC_8B_SIMPLE.ASM   4-26-2018  8:17:38         PAGE 67
Voltage-Controlled VCADSR

SYMBOL TABLE
  LABEL                             VALUE 

SP1BRGH                           0000019C
SP1BRGL                           0000019B
SPBRG                             0000019B
SPBRG1                            0000019B
SPBRGH                            0000019C
SPBRGH1                           0000019C
SPBRGL                            0000019B
SPEN                              00000007
SPLLEN                            00000007
SREN                              00000005
SSP1ADD                           00000212
SSP1ADD0                          00000000
SSP1ADD1                          00000001
SSP1ADD2                          00000002
SSP1ADD3                          00000003
SSP1ADD4                          00000004
SSP1ADD5                          00000005
SSP1ADD6                          00000006
SSP1ADD7                          00000007
SSP1BUF                           00000211
SSP1BUF0                          00000000
SSP1BUF1                          00000001
SSP1BUF2                          00000002
SSP1BUF3                          00000003
SSP1BUF4                          00000004
SSP1BUF5                          00000005
SSP1BUF6                          00000006
SSP1BUF7                          00000007
SSP1CON                           00000215
SSP1CON1                          00000215
SSP1CON2                          00000216
SSP1CON3                          00000217
SSP1IE                            00000003
SSP1IF                            00000003
SSP1MSK                           00000213
SSP1MSK0                          00000000
SSP1MSK1                          00000001
SSP1MSK2                          00000002
SSP1MSK3                          00000003
SSP1MSK4                          00000004
SSP1MSK5                          00000005
SSP1MSK6                          00000006
SSP1MSK7                          00000007
SSP1STAT                          00000214
SSPADD                            00000212
SSPBUF                            00000211
SSPCLKPPS                         00000E20
SSPCON                            00000215
SSPCON1                           00000215
SSPCON2                           00000216
SSPCON3                           00000217
SSPDATPPS                         00000E21
SSPEN                             00000005
MPASM 5.73              NEWPIC_8B_SIMPLE.ASM   4-26-2018  8:17:38         PAGE 68
Voltage-Controlled VCADSR

SYMBOL TABLE
  LABEL                             VALUE 

SSPM0                             00000000
SSPM1                             00000001
SSPM2                             00000002
SSPM3                             00000003
SSPMSK                            00000213
SSPOV                             00000006
SSPSSPPS                          00000E22
SSPSTAT                           00000214
STAGE                             0000002A
START_HI                          00000074
START_LO                          00000075
STATES                            00000033
STATUS                            00000003
STATUS_SHAD                       00000FE4
STKOVF                            00000007
STKPTR                            00000FED
STKUNF                            00000006
STRA                              00000000
STRB                              00000001
STRC                              00000002
STRD                              00000003
SUSTAIN_CV                        0000002D
SWDTEN                            00000000
SYNC_CM1CON0                      00000000
SYNC_CM2CON0                      00000000
SYNC_T1CON                        00000002
SYNC_T3CON                        00000002
SYNC_T5CON                        00000002
SYNC_TX1STA                       00000004
SYNC_TXSTA                        00000004
SYNC_TXSTA1                       00000004
ScannedAllChannels                000001D5
SelectADCChannel                  000001CC
SelectStage                       00000076
SelectStageBranch                 00000078
SetEnvelopeMode                   00000227
SetLFOMode                        0000022E
SetLoopingEnvelopeMode            0000023A
SkipPunch                         00000051
SkipSustain                       0000005D
StartEnvelope                     0000001B
Sustain                           000000B8
SustainCV                         000001FE
T0CKIPPS                          00000E11
T0CS                              00000005
T0IE                              00000005
T0IF                              00000002
T0SE                              00000004
T1CKIPPS                          00000E12
T1CKPS0                           00000004
T1CKPS1                           00000005
T1CON                             00000018
T1CS0                             00000006
MPASM 5.73              NEWPIC_8B_SIMPLE.ASM   4-26-2018  8:17:38         PAGE 69
Voltage-Controlled VCADSR

SYMBOL TABLE
  LABEL                             VALUE 

T1CS1                             00000007
T1GCON                            00000019
T1GE                              00000007
T1GGO_NOT_DONE                    00000003
T1GPOL                            00000006
T1GPPS                            00000E13
T1GSPM                            00000004
T1GSS0                            00000000
T1GSS1                            00000001
T1GTM                             00000005
T1GVAL                            00000002
T1ON                              00000000
T1OSCEN                           00000003
T2CKIPPS                          00000E19
T2CKPOL                           00000006
T2CKPS0                           00000004
T2CKPS1                           00000005
T2CKPS2                           00000006
T2CKSYNC                          00000005
T2CLKCON                          0000001E
T2CON                             0000001C
T2CS0                             00000000
T2CS1                             00000001
T2CS2                             00000002
T2CS3                             00000003
T2HLT                             0000001D
T2INPPS                           00000E19
T2MODE0                           00000000
T2MODE1                           00000001
T2MODE2                           00000002
T2MODE3                           00000003
T2MODE4                           00000004
T2ON                              00000007
T2OUTPS0                          00000000
T2OUTPS1                          00000001
T2OUTPS2                          00000002
T2OUTPS3                          00000003
T2PPS                             00000E19
T2PR                              0000001B
T2PSYNC                           00000007
T2RSEL0                           00000000
T2RSEL1                           00000001
T2RSEL2                           00000002
T2RSEL3                           00000003
T2RST                             0000001F
T2TMR                             0000001A
T3CKIPPS                          00000E1A
T3CKPS0                           00000004
T3CKPS1                           00000005
T3CON                             00000495
T3CS0                             00000006
T3CS1                             00000007
T3GCON                            00000496
MPASM 5.73              NEWPIC_8B_SIMPLE.ASM   4-26-2018  8:17:38         PAGE 70
Voltage-Controlled VCADSR

SYMBOL TABLE
  LABEL                             VALUE 

T3GE                              00000007
T3GGO_NOT_DONE                    00000003
T3GPOL                            00000006
T3GPPS                            00000E1B
T3GSPM                            00000004
T3GSS0                            00000000
T3GSS1                            00000001
T3GTM                             00000005
T3GVAL                            00000002
T3ON                              00000000
T4CKIPPS                          00000E1C
T4CKPOL                           00000006
T4CKPS0                           00000004
T4CKPS1                           00000005
T4CKPS2                           00000006
T4CKSYNC                          00000005
T4CLKCON                          00000417
T4CON                             00000415
T4CS0                             00000000
T4CS1                             00000001
T4CS2                             00000002
T4CS3                             00000003
T4HLT                             00000416
T4INPPS                           00000E1C
T4MODE0                           00000000
T4MODE1                           00000001
T4MODE2                           00000002
T4MODE3                           00000003
T4MODE4                           00000004
T4ON                              00000007
T4OUTPS0                          00000000
T4OUTPS1                          00000001
T4OUTPS2                          00000002
T4OUTPS3                          00000003
T4PPS                             00000E1C
T4PR                              00000414
T4PSYNC                           00000007
T4RSEL0                           00000000
T4RSEL1                           00000001
T4RSEL2                           00000002
T4RSEL3                           00000003
T4RST                             00000418
T4TMR                             00000413
T5CKIPPS                          00000E1D
T5CKPS0                           00000004
T5CKPS1                           00000005
T5CON                             0000049C
T5CS0                             00000006
T5CS1                             00000007
T5GCON                            0000049D
T5GE                              00000007
T5GGO_NOT_DONE                    00000003
T5GPOL                            00000006
MPASM 5.73              NEWPIC_8B_SIMPLE.ASM   4-26-2018  8:17:38         PAGE 71
Voltage-Controlled VCADSR

SYMBOL TABLE
  LABEL                             VALUE 

T5GPPS                            00000E1E
T5GSPM                            00000004
T5GSS0                            00000000
T5GSS1                            00000001
T5GTM                             00000005
T5GVAL                            00000002
T5ON                              00000000
T6CKIPPS                          00000E1F
T6CKPOL                           00000006
T6CKPS0                           00000004
T6CKPS1                           00000005
T6CKPS2                           00000006
T6CKSYNC                          00000005
T6CLKCON                          0000041E
T6CON                             0000041C
T6CS0                             00000000
T6CS1                             00000001
T6CS2                             00000002
T6CS3                             00000003
T6HLT                             0000041D
T6INPPS                           00000E1F
T6MODE0                           00000000
T6MODE1                           00000001
T6MODE2                           00000002
T6MODE3                           00000003
T6MODE4                           00000004
T6ON                              00000007
T6OUTPS0                          00000000
T6OUTPS1                          00000001
T6OUTPS2                          00000002
T6OUTPS3                          00000003
T6PPS                             00000E1F
T6PR                              0000041B
T6PSYNC                           00000007
T6RSEL0                           00000000
T6RSEL1                           00000001
T6RSEL2                           00000002
T6RSEL3                           00000003
T6RST                             0000041F
T6TMR                             0000041A
TEMP                              00000070
TIME_CV                           0000002F
TMR0                              00000015
TMR0CS                            00000005
TMR0IE                            00000005
TMR0IF                            00000002
TMR0SE                            00000004
TMR1                              00000016
TMR1CS0                           00000006
TMR1CS1                           00000007
TMR1GE                            00000007
TMR1GIE                           00000007
TMR1GIF                           00000007
MPASM 5.73              NEWPIC_8B_SIMPLE.ASM   4-26-2018  8:17:38         PAGE 72
Voltage-Controlled VCADSR

SYMBOL TABLE
  LABEL                             VALUE 

TMR1H                             00000017
TMR1IE                            00000000
TMR1IF                            00000000
TMR1L                             00000016
TMR1ON                            00000000
TMR2                              0000001A
TMR2IE                            00000001
TMR2IF                            00000001
TMR2ON                            00000007
TMR3                              00000493
TMR3CS0                           00000006
TMR3CS1                           00000007
TMR3GE                            00000007
TMR3GIE                           00000003
TMR3GIF                           00000003
TMR3H                             00000494
TMR3IE                            00000002
TMR3IF                            00000002
TMR3L                             00000493
TMR3ON                            00000000
TMR4                              00000413
TMR4IE                            00000000
TMR4IF                            00000000
TMR4ON                            00000007
TMR5                              0000049A
TMR5CS0                           00000006
TMR5CS1                           00000007
TMR5GE                            00000007
TMR5GIE                           00000005
TMR5GIF                           00000005
TMR5H                             0000049B
TMR5IE                            00000004
TMR5IF                            00000004
TMR5L                             0000049A
TMR5ON                            00000000
TMR6                              0000041A
TMR6IE                            00000001
TMR6IF                            00000001
TMR6ON                            00000007
TMRON                             00000000
TOSH                              00000FEF
TOSL                              00000FEE
TRIGGER                           STATES, 4
TRIGSEL0                          00000003
TRIGSEL1                          00000004
TRIGSEL2                          00000005
TRIGSEL3                          00000006
TRIGSEL4                          00000007
TRIG_CHANGED                      CHANGES, 4
TRISA                             0000008C
TRISA0                            00000000
TRISA1                            00000001
TRISA2                            00000002
MPASM 5.73              NEWPIC_8B_SIMPLE.ASM   4-26-2018  8:17:38         PAGE 73
Voltage-Controlled VCADSR

SYMBOL TABLE
  LABEL                             VALUE 

TRISA4                            00000004
TRISA5                            00000005
TRISC                             0000008E
TRISC0                            00000000
TRISC1                            00000001
TRISC2                            00000002
TRISC3                            00000003
TRISC4                            00000004
TRISC5                            00000005
TRMT                              00000001
TSEN                              00000005
TSRNG                             00000004
TUN0                              00000000
TUN1                              00000001
TUN2                              00000002
TUN3                              00000003
TUN4                              00000004
TUN5                              00000005
TX1REG                            0000019A
TX1STA                            0000019E
TX9                               00000006
TX9D                              00000000
TXEN                              00000005
TXIE                              00000004
TXIF                              00000004
TXREG                             0000019A
TXREG1                            0000019A
TXSTA                             0000019E
TXSTA1                            0000019E
TestEnvelopeMode                  00000223
TestGate                          00000025
TestLFOMode                       0000022A
TestLooping                       00000057
TestLoopingEnd                    00000063
TestPunch                         0000004F
TestTrigger                       00000017
TimeCV                            00000215
UA                                00000001
UG                                00000004
USE_ADSR                          PORTA, 5
USE_EXPO                          PORTA, 3
VREGCON                           00000197
VREGPM                            00000001
W                                 00000000
WCOL                              00000007
WDTCON                            00000097
WDTPS0                            00000001
WDTPS1                            00000002
WDTPS2                            00000003
WDTPS3                            00000004
WDTPS4                            00000005
WPUA                              0000020C
WPUA0                             00000000
MPASM 5.73              NEWPIC_8B_SIMPLE.ASM   4-26-2018  8:17:38         PAGE 74
Voltage-Controlled VCADSR

SYMBOL TABLE
  LABEL                             VALUE 

WPUA1                             00000001
WPUA2                             00000002
WPUA3                             00000003
WPUA4                             00000004
WPUA5                             00000005
WPUC                              0000020E
WPUC0                             00000000
WPUC1                             00000001
WPUC2                             00000002
WPUC3                             00000003
WPUC4                             00000004
WPUC5                             00000005
WR                                00000001
WREG                              00000009
WREG_SHAD                         00000FE5
WREN                              00000002
WRERR                             00000003
WUE                               00000001
Wait                              0000007E
Z                                 00000002
ZCD1CON                           0000021F
ZCD1EN                            00000007
ZCD1INTN                          00000000
ZCD1INTP                          00000001
ZCD1OUT                           00000005
ZCD1POL                           00000004
ZCDIE                             00000004
ZCDIF                             00000004
ZERO                              STATUS,Z
ZLF                               00000003
Z_SHAD                            00000002
_.org_1_016B                      0000016B
_.org_1_016E                      0000016E
_BOREN_NSLEEP                     00003DFF
_BOREN_OFF                        000039FF
_BOREN_ON                         00003FFF
_BOREN_SBODEN                     00003BFF
_BORV_HI                          00003BFF
_BORV_LO                          00003FFF
_CLKOUTEN_OFF                     00003FFF
_CLKOUTEN_ON                      000037FF
_CONFIG1                          00008007
_CONFIG2                          00008008
_CP_OFF                           00003FFF
_CP_ON                            00003F7F
_DEVID1                           00008006
_FCMEN_OFF                        00001FFF
_FCMEN_ON                         00003FFF
_FOSC_ECH                         00003FFF
_FOSC_ECL                         00003FFD
_FOSC_ECM                         00003FFE
_FOSC_EXTRC                       00003FFB
_FOSC_HS                          00003FFA
MPASM 5.73              NEWPIC_8B_SIMPLE.ASM   4-26-2018  8:17:38         PAGE 75
Voltage-Controlled VCADSR

SYMBOL TABLE
  LABEL                             VALUE 

_FOSC_INTOSC                      00003FFC
_FOSC_LP                          00003FF8
_FOSC_XT                          00003FF9
_IDLOC0                           00008000
_IDLOC1                           00008001
_IDLOC2                           00008002
_IDLOC3                           00008003
_IESO_OFF                         00002FFF
_IESO_ON                          00003FFF
_LPBOR_OFF                        00003FFF
_LPBOR_ON                         000037FF
_LVP_OFF                          00001FFF
_LVP_ON                           00003FFF
_MCLRE_OFF                        00003FBF
_MCLRE_ON                         00003FFF
_PLLEN_OFF                        00003EFF
_PLLEN_ON                         00003FFF
_PPS1WAY_OFF                      00003FFB
_PPS1WAY_ON                       00003FFF
_PWRTE_OFF                        00003FFF
_PWRTE_ON                         00003FDF
_STVREN_OFF                       00003DFF
_STVREN_ON                        00003FFF
_WDTE_NSLEEP                      00003FF7
_WDTE_OFF                         00003FE7
_WDTE_ON                          00003FFF
_WDTE_SWDTEN                      00003FEF
_WRT_ALL                          00003FFC
_WRT_BOOT                         00003FFE
_WRT_HALF                         00003FFD
_WRT_OFF                          00003FFF
_ZCD_OFF                          00003FFF
_ZCD_ON                           00003F7F
__16F1764                         00000001

Errors   :     0
Warnings :     0 reported,     0 suppressed
Messages :     0 reported,    25 suppressed

